   1               		.file	"drive.c"
   2               		.arch atmega168
   3               	__SREG__ = 0x3f
   4               	__SP_H__ = 0x3e
   5               	__SP_L__ = 0x3d
   6               	__tmp_reg__ = 0
   7               	__zero_reg__ = 1
   8               		.global __do_copy_data
   9               		.global __do_clear_bss
  17               	.Ltext0:
  18               	.global	Y
  19               	.global	Y
  20               		.section .bss
  23               	Y:
  24 0000 0000      		.skip 2,0
  25               	.global	X
  26               	.global	X
  29               	X:
  30 0002 0000      		.skip 2,0
  31               	.global	angle
  32               	.global	angle
  35               	angle:
  36 0004 0000      		.skip 2,0
  37               	.global	distance
  38               	.global	distance
  41               	distance:
  42 0006 0000      		.skip 2,0
  43               	.global	sensors_index
  44               	.global	sensors_index
  47               	sensors_index:
  48 0008 00        		.skip 1,0
  49               	.global	sensors_flag
  50               	.global	sensors_flag
  53               	sensors_flag:
  54 0009 00        		.skip 1,0
  55               	.global	timer_on
  56               	.global	timer_on
  59               	timer_on:
  60 000a 00        		.skip 1,0
  61               	.global	timer_cnt
  62               	.global	timer_cnt
  65               	timer_cnt:
  66 000b 0000      		.skip 2,0
  67               		.text
  68               	.global	initialize
  70               	initialize:
  71               	.LFB11:
  72               	.LM1:
  73               	/* prologue: frame size=0 */
  74               	/* prologue end (size=0) */
  75               	.LM2:
  76               	/* #APP */
  77 0000 F894      		cli
  78               	.LM3:
  79               	/* #NOAPP */
  80 0002 80E1      		ldi r24,lo8(16)
  81 0004 84B9      		out 36-0x20,r24
  82               	.LM4:
  83 0006 8FEC      		ldi r24,lo8(-49)
  84 0008 85B9      		out 37-0x20,r24
  85               	.LM5:
  86 000a 17B8      		out 39-0x20,__zero_reg__
  87               	.LM6:
  88 000c 8FEF      		ldi r24,lo8(-1)
  89 000e 88B9      		out 40-0x20,r24
  90               	.LM7:
  91 0010 86EE      		ldi r24,lo8(-26)
  92 0012 8AB9      		out 42-0x20,r24
  93               	.LM8:
  94 0014 8DE7      		ldi r24,lo8(125)
  95 0016 8BB9      		out 43-0x20,r24
  96               	.LM9:
  97 0018 1092 8000 		sts 128,__zero_reg__
  98               	.LM10:
  99 001c 8CE0      		ldi r24,lo8(12)
 100 001e 8093 8100 		sts 129,r24
 101               	.LM11:
 102 0022 87E4      		ldi r24,lo8(71)
 103 0024 90E0      		ldi r25,hi8(71)
 104 0026 9093 8900 		sts (136)+1,r25
 105 002a 8093 8800 		sts 136,r24
 106               	.LM12:
 107 002e 82E0      		ldi r24,lo8(2)
 108 0030 8093 6F00 		sts 111,r24
 109               	.LM13:
 110 0034 83E1      		ldi r24,lo8(19)
 111 0036 90E0      		ldi r25,hi8(19)
 112 0038 9093 C500 		sts (196)+1,r25
 113 003c 8093 C400 		sts 196,r24
 114               	.LM14:
 115 0040 88E9      		ldi r24,lo8(-104)
 116 0042 8093 C100 		sts 193,r24
 117               	.LM15:
 118 0046 86E0      		ldi r24,lo8(6)
 119 0048 8093 C200 		sts 194,r24
 120               	.LM16:
 121 004c 8091 6400 		lds r24,100
 122 0050 8E7F      		andi r24,lo8(-2)
 123 0052 8093 6400 		sts 100,r24
 124               	.LM17:
 125 0056 8091 7A00 		lds r24,122
 126 005a 8768      		ori r24,lo8(-121)
 127 005c 8093 7A00 		sts 122,r24
 128               	.LM18:
 129 0060 8091 7C00 		lds r24,124
 130 0064 8064      		ori r24,lo8(64)
 131 0066 8093 7C00 		sts 124,r24
 132               	.LM19:
 133               	/* #APP */
 134 006a 7894      		sei
 135               	/* #NOAPP */
 136               	/* epilogue: frame size=0 */
 137 006c 0895      		ret
 138               	/* epilogue end (size=1) */
 139               	/* function initialize size 57 (56) */
 140               	.LFE11:
 142               	.global	byteTx
 144               	byteTx:
 145               	.LFB7:
 146               	.LM20:
 147               	/* prologue: frame size=0 */
 148               	/* prologue end (size=0) */
 149 006e 982F      		mov r25,r24
 150               	.L3:
 151               	.LM21:
 152 0070 8091 C000 		lds r24,192
 153 0074 85FF      		sbrs r24,5
 154 0076 FCCF      		rjmp .L3
 155               	.LM22:
 156 0078 9093 C600 		sts 198,r25
 157               	/* epilogue: frame size=0 */
 158 007c 0895      		ret
 159               	/* epilogue end (size=1) */
 160               	/* function byteTx size 8 (7) */
 161               	.LFE7:
 163               	.global	defineSongs
 165               	defineSongs:
 166               	.LFB16:
 167               	.LM23:
 168               	/* prologue: frame size=0 */
 169               	/* prologue end (size=0) */
 170               	.LM24:
 171 007e 8CE8      		ldi r24,lo8(-116)
 172 0080 0E94 0000 		call byteTx
 173               	.LM25:
 174 0084 80E0      		ldi r24,lo8(0)
 175 0086 0E94 0000 		call byteTx
 176               	.LM26:
 177 008a 84E0      		ldi r24,lo8(4)
 178 008c 0E94 0000 		call byteTx
 179               	.LM27:
 180 0090 8CE3      		ldi r24,lo8(60)
 181 0092 0E94 0000 		call byteTx
 182               	.LM28:
 183 0096 86E0      		ldi r24,lo8(6)
 184 0098 0E94 0000 		call byteTx
 185               	.LM29:
 186 009c 88E4      		ldi r24,lo8(72)
 187 009e 0E94 0000 		call byteTx
 188               	.LM30:
 189 00a2 86E0      		ldi r24,lo8(6)
 190 00a4 0E94 0000 		call byteTx
 191               	.LM31:
 192 00a8 84E5      		ldi r24,lo8(84)
 193 00aa 0E94 0000 		call byteTx
 194               	.LM32:
 195 00ae 86E0      		ldi r24,lo8(6)
 196 00b0 0E94 0000 		call byteTx
 197               	.LM33:
 198 00b4 80E6      		ldi r24,lo8(96)
 199 00b6 0E94 0000 		call byteTx
 200               	.LM34:
 201 00ba 86E0      		ldi r24,lo8(6)
 202 00bc 0E94 0000 		call byteTx
 203               	.LM35:
 204 00c0 8CE8      		ldi r24,lo8(-116)
 205 00c2 0E94 0000 		call byteTx
 206               	.LM36:
 207 00c6 81E0      		ldi r24,lo8(1)
 208 00c8 0E94 0000 		call byteTx
 209               	.LM37:
 210 00cc 86E0      		ldi r24,lo8(6)
 211 00ce 0E94 0000 		call byteTx
 212               	.LM38:
 213 00d2 85E4      		ldi r24,lo8(69)
 214 00d4 0E94 0000 		call byteTx
 215               	.LM39:
 216 00d8 82E1      		ldi r24,lo8(18)
 217 00da 0E94 0000 		call byteTx
 218               	.LM40:
 219 00de 88E4      		ldi r24,lo8(72)
 220 00e0 0E94 0000 		call byteTx
 221               	.LM41:
 222 00e4 8CE0      		ldi r24,lo8(12)
 223 00e6 0E94 0000 		call byteTx
 224               	.LM42:
 225 00ea 8AE4      		ldi r24,lo8(74)
 226 00ec 0E94 0000 		call byteTx
 227               	.LM43:
 228 00f0 8CE0      		ldi r24,lo8(12)
 229 00f2 0E94 0000 		call byteTx
 230               	.LM44:
 231 00f6 88E4      		ldi r24,lo8(72)
 232 00f8 0E94 0000 		call byteTx
 233               	.LM45:
 234 00fc 8CE0      		ldi r24,lo8(12)
 235 00fe 0E94 0000 		call byteTx
 236               	.LM46:
 237 0102 85E4      		ldi r24,lo8(69)
 238 0104 0E94 0000 		call byteTx
 239               	.LM47:
 240 0108 8CE0      		ldi r24,lo8(12)
 241 010a 0E94 0000 		call byteTx
 242               	.LM48:
 243 010e 8DE4      		ldi r24,lo8(77)
 244 0110 0E94 0000 		call byteTx
 245               	.LM49:
 246 0114 88E1      		ldi r24,lo8(24)
 247 0116 0E94 0000 		call byteTx
 248               	.LM50:
 249 011a 8CE8      		ldi r24,lo8(-116)
 250 011c 0E94 0000 		call byteTx
 251               	.LM51:
 252 0120 82E0      		ldi r24,lo8(2)
 253 0122 0E94 0000 		call byteTx
 254               	.LM52:
 255 0126 82E0      		ldi r24,lo8(2)
 256 0128 0E94 0000 		call byteTx
 257               	.LM53:
 258 012c 8AE4      		ldi r24,lo8(74)
 259 012e 0E94 0000 		call byteTx
 260               	.LM54:
 261 0132 8CE0      		ldi r24,lo8(12)
 262 0134 0E94 0000 		call byteTx
 263               	.LM55:
 264 0138 8BE3      		ldi r24,lo8(59)
 265 013a 0E94 0000 		call byteTx
 266               	.LM56:
 267 013e 88E1      		ldi r24,lo8(24)
 268 0140 0E94 0000 		call byteTx
 269               	.LM57:
 270 0144 8CE8      		ldi r24,lo8(-116)
 271 0146 0E94 0000 		call byteTx
 272               	.LM58:
 273 014a 83E0      		ldi r24,lo8(3)
 274 014c 0E94 0000 		call byteTx
 275               	.LM59:
 276 0150 85E0      		ldi r24,lo8(5)
 277 0152 0E94 0000 		call byteTx
 278               	.LM60:
 279 0156 8DE4      		ldi r24,lo8(77)
 280 0158 0E94 0000 		call byteTx
 281               	.LM61:
 282 015c 82E1      		ldi r24,lo8(18)
 283 015e 0E94 0000 		call byteTx
 284               	.LM62:
 285 0162 8AE4      		ldi r24,lo8(74)
 286 0164 0E94 0000 		call byteTx
 287               	.LM63:
 288 0168 8CE0      		ldi r24,lo8(12)
 289 016a 0E94 0000 		call byteTx
 290               	.LM64:
 291 016e 88E4      		ldi r24,lo8(72)
 292 0170 0E94 0000 		call byteTx
 293               	.LM65:
 294 0174 8CE0      		ldi r24,lo8(12)
 295 0176 0E94 0000 		call byteTx
 296               	.LM66:
 297 017a 85E4      		ldi r24,lo8(69)
 298 017c 0E94 0000 		call byteTx
 299               	.LM67:
 300 0180 8CE0      		ldi r24,lo8(12)
 301 0182 0E94 0000 		call byteTx
 302               	.LM68:
 303 0186 81E4      		ldi r24,lo8(65)
 304 0188 0E94 0000 		call byteTx
 305               	.LM69:
 306 018c 88E1      		ldi r24,lo8(24)
 307 018e 0E94 0000 		call byteTx
 308               	/* epilogue: frame size=0 */
 309 0192 0895      		ret
 310               	/* epilogue end (size=1) */
 311               	/* function defineSongs size 139 (138) */
 312               	.LFE16:
 314               	.global	drive
 316               	drive:
 317               	.LFB14:
 318               	.LM70:
 319               	/* prologue: frame size=0 */
 320 0194 EF92      		push r14
 321 0196 FF92      		push r15
 322 0198 0F93      		push r16
 323 019a 1F93      		push r17
 324               	/* prologue end (size=4) */
 325 019c 8C01      		movw r16,r24
 326 019e 7B01      		movw r14,r22
 327               	.LM71:
 328 01a0 89E8      		ldi r24,lo8(-119)
 329 01a2 0E94 0000 		call byteTx
 330               	.LM72:
 331 01a6 812F      		mov r24,r17
 332 01a8 9927      		clr r25
 333 01aa 87FD      		sbrc r24,7
 334 01ac 9A95      		dec r25
 335 01ae 0E94 0000 		call byteTx
 336               	.LM73:
 337 01b2 802F      		mov r24,r16
 338 01b4 0E94 0000 		call byteTx
 339               	.LM74:
 340 01b8 8F2D      		mov r24,r15
 341 01ba 9927      		clr r25
 342 01bc 87FD      		sbrc r24,7
 343 01be 9A95      		dec r25
 344 01c0 0E94 0000 		call byteTx
 345               	.LM75:
 346 01c4 8E2D      		mov r24,r14
 347 01c6 0E94 0000 		call byteTx
 348               	/* epilogue: frame size=0 */
 349 01ca 1F91      		pop r17
 350 01cc 0F91      		pop r16
 351 01ce FF90      		pop r15
 352 01d0 EF90      		pop r14
 353 01d2 0895      		ret
 354               	/* epilogue end (size=5) */
 355               	/* function drive size 32 (23) */
 356               	.LFE14:
 358               	.global	delayAndUpdateSensors
 360               	delayAndUpdateSensors:
 361               	.LFB10:
 362               	.LM76:
 363               	/* prologue: frame size=0 */
 364               	/* prologue end (size=0) */
 365               	.LM77:
 366 01d4 21E0      		ldi r18,lo8(1)
 367 01d6 2093 0000 		sts timer_on,r18
 368               	.LM78:
 369 01da 9093 0000 		sts (timer_cnt)+1,r25
 370 01de 8093 0000 		sts timer_cnt,r24
 371               	.L22:
 372               	.LM79:
 373 01e2 8091 0000 		lds r24,timer_on
 374 01e6 8823      		tst r24
 375 01e8 09F4      		brne .+2
 376 01ea 42C0      		rjmp .L18
 377               	.LM80:
 378 01ec 8091 0000 		lds r24,sensors_flag
 379 01f0 8823      		tst r24
 380 01f2 B9F7      		brne .L22
 381 01f4 A0E0      		ldi r26,lo8(sensors_in)
 382 01f6 B0E0      		ldi r27,hi8(sensors_in)
 383 01f8 E0E0      		ldi r30,lo8(sensors)
 384 01fa F0E0      		ldi r31,hi8(sensors)
 385 01fc 93E3      		ldi r25,lo8(51)
 386               	.L15:
 387               	.LM81:
 388 01fe 8D91      		ld r24,X+
 389 0200 8193      		st Z+,r24
 390               	.LM82:
 391 0202 9150      		subi r25,lo8(-(-1))
 392 0204 97FF      		sbrs r25,7
 393 0206 FBCF      		rjmp .L15
 394               	.LM83:
 395 0208 8091 0000 		lds r24,sensors+12
 396 020c 9927      		clr r25
 397 020e 382F      		mov r19,r24
 398 0210 2227      		clr r18
 399 0212 8091 0000 		lds r24,sensors+13
 400 0216 9927      		clr r25
 401 0218 282B      		or r18,r24
 402 021a 392B      		or r19,r25
 403 021c 8091 0000 		lds r24,distance
 404 0220 9091 0000 		lds r25,(distance)+1
 405 0224 820F      		add r24,r18
 406 0226 931F      		adc r25,r19
 407 0228 9093 0000 		sts (distance)+1,r25
 408 022c 8093 0000 		sts distance,r24
 409               	.LM84:
 410 0230 8091 0000 		lds r24,sensors+14
 411 0234 9927      		clr r25
 412 0236 382F      		mov r19,r24
 413 0238 2227      		clr r18
 414 023a 8091 0000 		lds r24,sensors+15
 415 023e 9927      		clr r25
 416 0240 282B      		or r18,r24
 417 0242 392B      		or r19,r25
 418 0244 8091 0000 		lds r24,angle
 419 0248 9091 0000 		lds r25,(angle)+1
 420 024c 820F      		add r24,r18
 421 024e 931F      		adc r25,r19
 422 0250 9093 0000 		sts (angle)+1,r25
 423 0254 8093 0000 		sts angle,r24
 424               	.LM85:
 425 0258 8EE8      		ldi r24,lo8(-114)
 426 025a 0E94 0000 		call byteTx
 427               	.LM86:
 428 025e 86E0      		ldi r24,lo8(6)
 429 0260 0E94 0000 		call byteTx
 430               	.LM87:
 431 0264 1092 0000 		sts sensors_index,__zero_reg__
 432               	.LM88:
 433 0268 81E0      		ldi r24,lo8(1)
 434 026a 8093 0000 		sts sensors_flag,r24
 435 026e B9CF      		rjmp .L22
 436               	.L18:
 437 0270 0895      		ret
 438               	/* epilogue: frame size=0 */
 439               	/* epilogue: noreturn */
 440               	/* epilogue end (size=0) */
 441               	/* function delayAndUpdateSensors size 79 (79) */
 442               	.LFE10:
 444               	.global	delayMs
 446               	delayMs:
 447               	.LFB8:
 448               	.LM89:
 449               	/* prologue: frame size=0 */
 450               	/* prologue end (size=0) */
 451 0272 9C01      		movw r18,r24
 452               	.LM90:
 453 0274 81E0      		ldi r24,lo8(1)
 454 0276 8093 0000 		sts timer_on,r24
 455               	.LM91:
 456 027a 3093 0000 		sts (timer_cnt)+1,r19
 457 027e 2093 0000 		sts timer_cnt,r18
 458               	.L24:
 459               	.LM92:
 460 0282 8091 0000 		lds r24,timer_on
 461 0286 8823      		tst r24
 462 0288 E1F7      		brne .L24
 463               	/* epilogue: frame size=0 */
 464 028a 0895      		ret
 465               	/* epilogue end (size=1) */
 466               	/* function delayMs size 13 (12) */
 467               	.LFE8:
 469               	.global	baud
 471               	baud:
 472               	.LFB13:
 473               	.LM93:
 474               	/* prologue: frame size=0 */
 475 028c CF93      		push r28
 476               	/* prologue end (size=1) */
 477 028e C82F      		mov r28,r24
 478               	.LM94:
 479 0290 8C30      		cpi r24,lo8(12)
 480 0292 08F0      		brlo .+2
 481 0294 54C0      		rjmp .L27
 482               	.LM95:
 483 0296 81E8      		ldi r24,lo8(-127)
 484 0298 0E94 0000 		call byteTx
 485               	.LM96:
 486 029c 8091 C000 		lds r24,192
 487 02a0 8064      		ori r24,lo8(64)
 488 02a2 8093 C000 		sts 192,r24
 489               	.LM97:
 490 02a6 8C2F      		mov r24,r28
 491 02a8 0E94 0000 		call byteTx
 492               	.L29:
 493               	.LM98:
 494 02ac 8091 C000 		lds r24,192
 495 02b0 86FF      		sbrs r24,6
 496 02b2 FCCF      		rjmp .L29
 497               	.LM99:
 498               	/* #APP */
 499 02b4 F894      		cli
 500               	.LM100:
 501               	/* #NOAPP */
 502 02b6 CB30      		cpi r28,lo8(11)
 503 02b8 19F4      		brne .L32
 504               	.LM101:
 505 02ba 89E0      		ldi r24,lo8(9)
 506 02bc 90E0      		ldi r25,hi8(9)
 507 02be 36C0      		rjmp .L55
 508               	.L32:
 509               	.LM102:
 510 02c0 CA30      		cpi r28,lo8(10)
 511 02c2 19F4      		brne .L34
 512               	.LM103:
 513 02c4 83E1      		ldi r24,lo8(19)
 514 02c6 90E0      		ldi r25,hi8(19)
 515 02c8 31C0      		rjmp .L55
 516               	.L34:
 517               	.LM104:
 518 02ca C930      		cpi r28,lo8(9)
 519 02cc 19F4      		brne .L36
 520               	.LM105:
 521 02ce 8DE1      		ldi r24,lo8(29)
 522 02d0 90E0      		ldi r25,hi8(29)
 523 02d2 2CC0      		rjmp .L55
 524               	.L36:
 525               	.LM106:
 526 02d4 C830      		cpi r28,lo8(8)
 527 02d6 19F4      		brne .L38
 528               	.LM107:
 529 02d8 87E2      		ldi r24,lo8(39)
 530 02da 90E0      		ldi r25,hi8(39)
 531 02dc 27C0      		rjmp .L55
 532               	.L38:
 533               	.LM108:
 534 02de C730      		cpi r28,lo8(7)
 535 02e0 19F4      		brne .L40
 536               	.LM109:
 537 02e2 8BE3      		ldi r24,lo8(59)
 538 02e4 90E0      		ldi r25,hi8(59)
 539 02e6 22C0      		rjmp .L55
 540               	.L40:
 541               	.LM110:
 542 02e8 C630      		cpi r28,lo8(6)
 543 02ea 19F4      		brne .L42
 544               	.LM111:
 545 02ec 8FE4      		ldi r24,lo8(79)
 546 02ee 90E0      		ldi r25,hi8(79)
 547 02f0 1DC0      		rjmp .L55
 548               	.L42:
 549               	.LM112:
 550 02f2 C530      		cpi r28,lo8(5)
 551 02f4 19F4      		brne .L44
 552               	.LM113:
 553 02f6 87E7      		ldi r24,lo8(119)
 554 02f8 90E0      		ldi r25,hi8(119)
 555 02fa 18C0      		rjmp .L55
 556               	.L44:
 557               	.LM114:
 558 02fc C430      		cpi r28,lo8(4)
 559 02fe 19F4      		brne .L46
 560               	.LM115:
 561 0300 8FEE      		ldi r24,lo8(239)
 562 0302 90E0      		ldi r25,hi8(239)
 563 0304 13C0      		rjmp .L55
 564               	.L46:
 565               	.LM116:
 566 0306 C330      		cpi r28,lo8(3)
 567 0308 19F4      		brne .L48
 568               	.LM117:
 569 030a 8FED      		ldi r24,lo8(479)
 570 030c 91E0      		ldi r25,hi8(479)
 571 030e 0EC0      		rjmp .L55
 572               	.L48:
 573               	.LM118:
 574 0310 C230      		cpi r28,lo8(2)
 575 0312 19F4      		brne .L50
 576               	.LM119:
 577 0314 8FEB      		ldi r24,lo8(959)
 578 0316 93E0      		ldi r25,hi8(959)
 579 0318 09C0      		rjmp .L55
 580               	.L50:
 581               	.LM120:
 582 031a C130      		cpi r28,lo8(1)
 583 031c 19F4      		brne .L52
 584               	.LM121:
 585 031e 8FE7      		ldi r24,lo8(1919)
 586 0320 97E0      		ldi r25,hi8(1919)
 587 0322 04C0      		rjmp .L55
 588               	.L52:
 589               	.LM122:
 590 0324 CC23      		tst r28
 591 0326 31F4      		brne .L33
 592               	.LM123:
 593 0328 8FEF      		ldi r24,lo8(3839)
 594 032a 9EE0      		ldi r25,hi8(3839)
 595               	.L55:
 596 032c 9093 C500 		sts (196)+1,r25
 597 0330 8093 C400 		sts 196,r24
 598               	.L33:
 599               	.LM124:
 600               	/* #APP */
 601 0334 7894      		sei
 602               	.LM125:
 603               	/* #NOAPP */
 604 0336 84E6      		ldi r24,lo8(100)
 605 0338 90E0      		ldi r25,hi8(100)
 606 033a 0E94 0000 		call delayMs
 607               	.L27:
 608               	/* epilogue: frame size=0 */
 609 033e CF91      		pop r28
 610 0340 0895      		ret
 611               	/* epilogue end (size=2) */
 612               	/* function baud size 93 (90) */
 613               	.LFE13:
 615               	.global	powerOnRobot
 617               	powerOnRobot:
 618               	.LFB12:
 619               	.LM126:
 620               	/* prologue: frame size=0 */
 621               	/* prologue end (size=0) */
 622               	.LM127:
 623 0342 1D99      		sbic 35-0x20,5
 624 0344 13C0      		rjmp .L56
 625               	.LM128:
 626 0346 1D99      		sbic 35-0x20,5
 627 0348 0DC0      		rjmp .L62
 628               	.L60:
 629               	.LM129:
 630 034a 5F98      		cbi 43-0x20,7
 631               	.LM130:
 632 034c 84EF      		ldi r24,lo8(500)
 633 034e 91E0      		ldi r25,hi8(500)
 634 0350 0E94 0000 		call delayMs
 635               	.LM131:
 636 0354 5F9A      		sbi 43-0x20,7
 637               	.LM132:
 638 0356 84E6      		ldi r24,lo8(100)
 639 0358 90E0      		ldi r25,hi8(100)
 640 035a 0E94 0000 		call delayMs
 641               	.LM133:
 642 035e 5F98      		cbi 43-0x20,7
 643 0360 1D9B      		sbis 35-0x20,5
 644 0362 F3CF      		rjmp .L60
 645               	.L62:
 646               	.LM134:
 647 0364 8CEA      		ldi r24,lo8(3500)
 648 0366 9DE0      		ldi r25,hi8(3500)
 649 0368 0E94 0000 		call delayMs
 650               	.L56:
 651 036c 0895      		ret
 652               	/* epilogue: frame size=0 */
 653               	/* epilogue: noreturn */
 654               	/* epilogue end (size=0) */
 655               	/* function powerOnRobot size 22 (22) */
 656               	.LFE12:
 658               	.global	ReadX
 660               	ReadX:
 661               	.LFB9:
 662               	.LM135:
 663               	/* prologue: frame size=0 */
 664               	/* prologue end (size=0) */
 665               	.LM136:
 666 036e 8091 7C00 		lds r24,124
 667 0372 8660      		ori r24,lo8(6)
 668 0374 8093 7C00 		sts 124,r24
 669               	.LM137:
 670 0378 8091 7A00 		lds r24,122
 671 037c 8064      		ori r24,lo8(64)
 672 037e 8093 7A00 		sts 122,r24
 673               	.L64:
 674               	.LM138:
 675 0382 8091 7A00 		lds r24,122
 676 0386 86FD      		sbrc r24,6
 677 0388 FCCF      		rjmp .L64
 678               	.LM139:
 679 038a 8091 7800 		lds r24,120
 680 038e 9091 7900 		lds r25,(120)+1
 681 0392 9093 0000 		sts (X)+1,r25
 682 0396 8093 0000 		sts X,r24
 683               	.LM140:
 684 039a 5D98      		cbi 43-0x20,5
 685               	.LM141:
 686 039c 5E98      		cbi 43-0x20,6
 687               	.LM142:
 688 039e 8091 7C00 		lds r24,124
 689 03a2 8760      		ori r24,lo8(7)
 690 03a4 8093 7C00 		sts 124,r24
 691               	.LM143:
 692 03a8 8091 7A00 		lds r24,122
 693 03ac 8064      		ori r24,lo8(64)
 694 03ae 8093 7A00 		sts 122,r24
 695               	.L67:
 696               	.LM144:
 697 03b2 8091 7A00 		lds r24,122
 698 03b6 86FD      		sbrc r24,6
 699 03b8 FCCF      		rjmp .L67
 700               	.LM145:
 701 03ba 8091 7800 		lds r24,120
 702 03be 9091 7900 		lds r25,(120)+1
 703 03c2 9093 0000 		sts (Y)+1,r25
 704 03c6 8093 0000 		sts Y,r24
 705               	/* epilogue: frame size=0 */
 706 03ca 0895      		ret
 707               	/* epilogue end (size=1) */
 708               	/* function ReadX size 47 (46) */
 709               	.LFE9:
 711               	.global	main
 713               	main:
 714               	.LFB4:
 715               	.LM146:
 716               	/* prologue: frame size=0 */
 717 03cc C0E0      		ldi r28,lo8(__stack - 0)
 718 03ce D0E0      		ldi r29,hi8(__stack - 0)
 719 03d0 DEBF      		out __SP_H__,r29
 720 03d2 CDBF      		out __SP_L__,r28
 721               	/* prologue end (size=4) */
 722               	.LM147:
 723 03d4 0E94 0000 		call initialize
 724               	.LM148:
 725 03d8 8BB1      		in r24,43-0x20
 726 03da 8066      		ori r24,lo8(96)
 727 03dc 8BB9      		out 43-0x20,r24
 728               	.LM149:
 729 03de 0E94 0000 		call powerOnRobot
 730               	.LM150:
 731 03e2 80E8      		ldi r24,lo8(-128)
 732 03e4 0E94 0000 		call byteTx
 733               	.LM151:
 734 03e8 8AE0      		ldi r24,lo8(10)
 735 03ea 0E94 0000 		call baud
 736               	.LM152:
 737 03ee 0E94 0000 		call defineSongs
 738               	.LM153:
 739 03f2 82E8      		ldi r24,lo8(-126)
 740 03f4 0E94 0000 		call byteTx
 741               	.LM154:
 742 03f8 84E8      		ldi r24,lo8(-124)
 743 03fa 0E94 0000 		call byteTx
 744               	.LM155:
 745 03fe 60E0      		ldi r22,lo8(-32768)
 746 0400 70E8      		ldi r23,hi8(-32768)
 747 0402 80E0      		ldi r24,lo8(0)
 748 0404 90E0      		ldi r25,hi8(0)
 749 0406 0E94 0000 		call drive
 750               	.LM156:
 751 040a 8DE8      		ldi r24,lo8(-115)
 752 040c 0E94 0000 		call byteTx
 753               	.LM157:
 754 0410 80E0      		ldi r24,lo8(0)
 755 0412 0E94 0000 		call byteTx
 756               	.LM158:
 757 0416 8EEE      		ldi r24,lo8(750)
 758 0418 92E0      		ldi r25,hi8(750)
 759 041a 0E94 0000 		call delayAndUpdateSensors
 760               	.LM159:
 761 041e 8BE8      		ldi r24,lo8(-117)
 762 0420 0E94 0000 		call byteTx
 763               	.LM160:
 764 0424 8AE0      		ldi r24,lo8(10)
 765 0426 0E94 0000 		call byteTx
 766               	.LM161:
 767 042a 80E8      		ldi r24,lo8(-128)
 768 042c 0E94 0000 		call byteTx
 769               	.LM162:
 770 0430 8FEF      		ldi r24,lo8(-1)
 771 0432 0E94 0000 		call byteTx
 772               	.L71:
 773               	.LM163:
 774 0436 8BB1      		in r24,43-0x20
 775 0438 8066      		ori r24,lo8(96)
 776 043a 8BB9      		out 43-0x20,r24
 777               	.LM164:
 778 043c 88EE      		ldi r24,lo8(1000)
 779 043e 93E0      		ldi r25,hi8(1000)
 780 0440 0E94 0000 		call delayMs
 781               	.LM165:
 782 0444 0E94 0000 		call ReadX
 783               	.LM166:
 784 0448 8CE8      		ldi r24,lo8(-116)
 785 044a 0E94 0000 		call byteTx
 786               	.LM167:
 787 044e 84E0      		ldi r24,lo8(4)
 788 0450 0E94 0000 		call byteTx
 789               	.LM168:
 790 0454 81E0      		ldi r24,lo8(1)
 791 0456 0E94 0000 		call byteTx
 792               	.LM169:
 793 045a 8091 0000 		lds r24,X
 794 045e 9091 0000 		lds r25,(X)+1
 795 0462 73E0      		ldi r23,3
 796 0464 9595      	1:	asr r25
 797 0466 8795      		ror r24
 798 0468 7A95      		dec r23
 799 046a E1F7      		brne 1b
 800 046c 0E94 0000 		call byteTx
 801               	.LM170:
 802 0470 80E4      		ldi r24,lo8(64)
 803 0472 0E94 0000 		call byteTx
 804               	.LM171:
 805 0476 8DE8      		ldi r24,lo8(-115)
 806 0478 0E94 0000 		call byteTx
 807               	.LM172:
 808 047c 84E0      		ldi r24,lo8(4)
 809 047e 0E94 0000 		call byteTx
 810               	.LM173:
 811 0482 8CED      		ldi r24,lo8(1500)
 812 0484 95E0      		ldi r25,hi8(1500)
 813 0486 0E94 0000 		call delayMs
 814               	.LM174:
 815 048a 8CE8      		ldi r24,lo8(-116)
 816 048c 0E94 0000 		call byteTx
 817               	.LM175:
 818 0490 86E0      		ldi r24,lo8(6)
 819 0492 0E94 0000 		call byteTx
 820               	.LM176:
 821 0496 81E0      		ldi r24,lo8(1)
 822 0498 0E94 0000 		call byteTx
 823               	.LM177:
 824 049c 80E4      		ldi r24,lo8(64)
 825 049e 0E94 0000 		call byteTx
 826               	.LM178:
 827 04a2 80E4      		ldi r24,lo8(64)
 828 04a4 0E94 0000 		call byteTx
 829               	.LM179:
 830 04a8 8DE8      		ldi r24,lo8(-115)
 831 04aa 0E94 0000 		call byteTx
 832               	.LM180:
 833 04ae 86E0      		ldi r24,lo8(6)
 834 04b0 0E94 0000 		call byteTx
 835               	.LM181:
 836 04b4 8CED      		ldi r24,lo8(1500)
 837 04b6 95E0      		ldi r25,hi8(1500)
 838 04b8 0E94 0000 		call delayMs
 839               	.LM182:
 840 04bc 2091 0000 		lds r18,X
 841 04c0 3091 0000 		lds r19,(X)+1
 842 04c4 8091 0000 		lds r24,Y
 843 04c8 9091 0000 		lds r25,(Y)+1
 844 04cc 281B      		sub r18,r24
 845 04ce 390B      		sbc r19,r25
 846 04d0 37FF      		sbrs r19,7
 847 04d2 03C0      		rjmp .L74
 848 04d4 3095      		com r19
 849 04d6 2195      		neg r18
 850 04d8 3F4F      		sbci r19,lo8(-1)
 851               	.L74:
 852 04da 3595      		asr r19
 853 04dc 2795      		ror r18
 854 04de 3595      		asr r19
 855 04e0 2795      		ror r18
 856 04e2 232B      		or r18,r19
 857 04e4 89F5      		brne .L73
 858               	.LM183:
 859 04e6 8CE8      		ldi r24,lo8(-116)
 860 04e8 0E94 0000 		call byteTx
 861               	.LM184:
 862 04ec 85E0      		ldi r24,lo8(5)
 863 04ee 0E94 0000 		call byteTx
 864               	.LM185:
 865 04f2 82E0      		ldi r24,lo8(2)
 866 04f4 0E94 0000 		call byteTx
 867               	.LM186:
 868 04f8 8091 0000 		lds r24,X
 869 04fc 9091 0000 		lds r25,(X)+1
 870 0500 53E0      		ldi r21,3
 871 0502 9595      	1:	asr r25
 872 0504 8795      		ror r24
 873 0506 5A95      		dec r21
 874 0508 E1F7      		brne 1b
 875 050a 0E94 0000 		call byteTx
 876               	.LM187:
 877 050e 80E4      		ldi r24,lo8(64)
 878 0510 0E94 0000 		call byteTx
 879               	.LM188:
 880 0514 8091 0000 		lds r24,X
 881 0518 9091 0000 		lds r25,(X)+1
 882 051c 43E0      		ldi r20,3
 883 051e 9595      	1:	asr r25
 884 0520 8795      		ror r24
 885 0522 4A95      		dec r20
 886 0524 E1F7      		brne 1b
 887 0526 0E94 0000 		call byteTx
 888               	.LM189:
 889 052a 80E1      		ldi r24,lo8(16)
 890 052c 0E94 0000 		call byteTx
 891               	.LM190:
 892 0530 8DE8      		ldi r24,lo8(-115)
 893 0532 0E94 0000 		call byteTx
 894               	.LM191:
 895 0536 85E0      		ldi r24,lo8(5)
 896 0538 0E94 0000 		call byteTx
 897               	.LM192:
 898 053c 80ED      		ldi r24,lo8(2000)
 899 053e 97E0      		ldi r25,hi8(2000)
 900 0540 0E94 0000 		call delayMs
 901               	.LM193:
 902 0544 5D98      		cbi 43-0x20,5
 903               	.LM194:
 904 0546 5E9A      		sbi 43-0x20,6
 905               	.L73:
 906               	.LM195:
 907 0548 88EE      		ldi r24,lo8(1000)
 908 054a 93E0      		ldi r25,hi8(1000)
 909 054c 0E94 0000 		call delayMs
 910               	.LM196:
 911 0550 72CF      		rjmp .L71
 912               	/* epilogue: frame size=0 */
 913               	/* epilogue: noreturn */
 914               	/* epilogue end (size=0) */
 915               	/* function main size 195 (191) */
 916               	.LFE4:
 918               	.global	__vector_18
 920               	__vector_18:
 921               	.LFB5:
 922               	.LM197:
 923               	/* prologue: frame size=0 */
 924 0552 1F92      		push __zero_reg__
 925 0554 0F92      		push __tmp_reg__
 926 0556 0FB6      		in __tmp_reg__,__SREG__
 927 0558 0F92      		push __tmp_reg__
 928 055a 1124      		clr __zero_reg__
 929 055c 8F93      		push r24
 930 055e 9F93      		push r25
 931 0560 EF93      		push r30
 932 0562 FF93      		push r31
 933               	/* prologue end (size=9) */
 934               	.LM198:
 935 0564 9091 C600 		lds r25,198
 936               	.LM199:
 937 0568 8091 0000 		lds r24,sensors_flag
 938 056c 8823      		tst r24
 939 056e 81F0      		breq .L75
 940               	.LM200:
 941 0570 8091 0000 		lds r24,sensors_index
 942 0574 E82F      		mov r30,r24
 943 0576 FF27      		clr r31
 944 0578 E050      		subi r30,lo8(-(sensors_in))
 945 057a F040      		sbci r31,hi8(-(sensors_in))
 946 057c 9083      		st Z,r25
 947 057e 8F5F      		subi r24,lo8(-(1))
 948 0580 8093 0000 		sts sensors_index,r24
 949               	.LM201:
 950 0584 8091 0000 		lds r24,sensors_index
 951 0588 8433      		cpi r24,lo8(52)
 952 058a 10F0      		brlo .L75
 953               	.LM202:
 954 058c 1092 0000 		sts sensors_flag,__zero_reg__
 955               	.L75:
 956               	/* epilogue: frame size=0 */
 957 0590 FF91      		pop r31
 958 0592 EF91      		pop r30
 959 0594 9F91      		pop r25
 960 0596 8F91      		pop r24
 961 0598 0F90      		pop __tmp_reg__
 962 059a 0FBE      		out __SREG__,__tmp_reg__
 963 059c 0F90      		pop __tmp_reg__
 964 059e 1F90      		pop __zero_reg__
 965 05a0 1895      		reti
 966               	/* epilogue end (size=9) */
 967               	/* function __vector_18 size 40 (22) */
 968               	.LFE5:
 970               	.global	__vector_11
 972               	__vector_11:
 973               	.LFB6:
 974               	.LM203:
 975               	/* prologue: frame size=0 */
 976 05a2 1F92      		push __zero_reg__
 977 05a4 0F92      		push __tmp_reg__
 978 05a6 0FB6      		in __tmp_reg__,__SREG__
 979 05a8 0F92      		push __tmp_reg__
 980 05aa 1124      		clr __zero_reg__
 981 05ac 8F93      		push r24
 982 05ae 9F93      		push r25
 983               	/* prologue end (size=7) */
 984               	.LM204:
 985 05b0 8091 0000 		lds r24,timer_cnt
 986 05b4 9091 0000 		lds r25,(timer_cnt)+1
 987 05b8 892B      		or r24,r25
 988 05ba 51F0      		breq .L79
 989               	.LM205:
 990 05bc 8091 0000 		lds r24,timer_cnt
 991 05c0 9091 0000 		lds r25,(timer_cnt)+1
 992 05c4 0197      		sbiw r24,1
 993 05c6 9093 0000 		sts (timer_cnt)+1,r25
 994 05ca 8093 0000 		sts timer_cnt,r24
 995 05ce 02C0      		rjmp .L78
 996               	.L79:
 997               	.LM206:
 998 05d0 1092 0000 		sts timer_on,__zero_reg__
 999               	.L78:
 1000               	/* epilogue: frame size=0 */
 1001 05d4 9F91      		pop r25
 1002 05d6 8F91      		pop r24
 1003 05d8 0F90      		pop __tmp_reg__
 1004 05da 0FBE      		out __SREG__,__tmp_reg__
 1005 05dc 0F90      		pop __tmp_reg__
 1006 05de 1F90      		pop __zero_reg__
 1007 05e0 1895      		reti
 1008               	/* epilogue end (size=7) */
 1009               	/* function __vector_11 size 32 (18) */
 1010               	.LFE6:
 1012               	.global	randomAngle
 1014               	randomAngle:
 1015               	.LFB15:
 1016               	.LM207:
 1017               	/* prologue: frame size=0 */
 1018               	/* prologue end (size=0) */
 1019               	.LM208:
 1020 05e2 0E94 0000 		call random
 1021 05e6 DC01      		movw r26,r24
 1022 05e8 CB01      		movw r24,r22
 1023 05ea 9070      		andi r25,hi8(255)
 1024 05ec 9695      		lsr r25
 1025 05ee 8795      		ror r24
 1026               	.LM209:
 1027 05f0 C596      		adiw r24,53
 1028               	/* epilogue: frame size=0 */
 1029 05f2 0895      		ret
 1030               	/* epilogue end (size=1) */
 1031               	/* function randomAngle size 10 (9) */
 1032               	.LFE15:
 1034               		.comm sensors_in,52,1
 1035               		.comm sensors,52,1
 1036               	.Letext0:
DEFINED SYMBOLS
                            *ABS*:00000000 drive.c
C:\DOCUME~1\Uyen\LOCALS~1\Temp/cc4Gbaaa.s:3      *ABS*:0000003f __SREG__
C:\DOCUME~1\Uyen\LOCALS~1\Temp/cc4Gbaaa.s:4      *ABS*:0000003e __SP_H__
C:\DOCUME~1\Uyen\LOCALS~1\Temp/cc4Gbaaa.s:5      *ABS*:0000003d __SP_L__
C:\DOCUME~1\Uyen\LOCALS~1\Temp/cc4Gbaaa.s:6      *ABS*:00000000 __tmp_reg__
C:\DOCUME~1\Uyen\LOCALS~1\Temp/cc4Gbaaa.s:7      *ABS*:00000001 __zero_reg__
C:\DOCUME~1\Uyen\LOCALS~1\Temp/cc4Gbaaa.s:23     .bss:00000000 Y
C:\DOCUME~1\Uyen\LOCALS~1\Temp/cc4Gbaaa.s:29     .bss:00000002 X
C:\DOCUME~1\Uyen\LOCALS~1\Temp/cc4Gbaaa.s:35     .bss:00000004 angle
C:\DOCUME~1\Uyen\LOCALS~1\Temp/cc4Gbaaa.s:41     .bss:00000006 distance
C:\DOCUME~1\Uyen\LOCALS~1\Temp/cc4Gbaaa.s:47     .bss:00000008 sensors_index
C:\DOCUME~1\Uyen\LOCALS~1\Temp/cc4Gbaaa.s:53     .bss:00000009 sensors_flag
C:\DOCUME~1\Uyen\LOCALS~1\Temp/cc4Gbaaa.s:59     .bss:0000000a timer_on
C:\DOCUME~1\Uyen\LOCALS~1\Temp/cc4Gbaaa.s:65     .bss:0000000b timer_cnt
C:\DOCUME~1\Uyen\LOCALS~1\Temp/cc4Gbaaa.s:70     .text:00000000 initialize
C:\DOCUME~1\Uyen\LOCALS~1\Temp/cc4Gbaaa.s:144    .text:0000006e byteTx
C:\DOCUME~1\Uyen\LOCALS~1\Temp/cc4Gbaaa.s:165    .text:0000007e defineSongs
C:\DOCUME~1\Uyen\LOCALS~1\Temp/cc4Gbaaa.s:316    .text:00000194 drive
C:\DOCUME~1\Uyen\LOCALS~1\Temp/cc4Gbaaa.s:360    .text:000001d4 delayAndUpdateSensors
                            *COM*:00000034 sensors_in
                            *COM*:00000034 sensors
C:\DOCUME~1\Uyen\LOCALS~1\Temp/cc4Gbaaa.s:446    .text:00000272 delayMs
C:\DOCUME~1\Uyen\LOCALS~1\Temp/cc4Gbaaa.s:471    .text:0000028c baud
C:\DOCUME~1\Uyen\LOCALS~1\Temp/cc4Gbaaa.s:617    .text:00000342 powerOnRobot
C:\DOCUME~1\Uyen\LOCALS~1\Temp/cc4Gbaaa.s:660    .text:0000036e ReadX
C:\DOCUME~1\Uyen\LOCALS~1\Temp/cc4Gbaaa.s:713    .text:000003cc main
C:\DOCUME~1\Uyen\LOCALS~1\Temp/cc4Gbaaa.s:920    .text:00000552 __vector_18
C:\DOCUME~1\Uyen\LOCALS~1\Temp/cc4Gbaaa.s:972    .text:000005a2 __vector_11
C:\DOCUME~1\Uyen\LOCALS~1\Temp/cc4Gbaaa.s:1014   .text:000005e2 randomAngle

UNDEFINED SYMBOLS
__do_copy_data
__do_clear_bss
__stack
random
