   1               		.file	"drive.c"
   2               	__SREG__ = 0x3f
   3               	__SP_H__ = 0x3e
   4               	__SP_L__ = 0x3d
   5               	__tmp_reg__ = 0
   6               	__zero_reg__ = 1
   7               		.global __do_copy_data
   8               		.global __do_clear_bss
  16               	.Ltext0:
  17               	.global	__vector_18
  19               	__vector_18:
  20               	.LFB3:
  21               	.LM1:
  22               	/* prologue: frame size=0 */
  23 0000 1F92      		push __zero_reg__
  24 0002 0F92      		push __tmp_reg__
  25 0004 0FB6      		in __tmp_reg__,__SREG__
  26 0006 0F92      		push __tmp_reg__
  27 0008 1124      		clr __zero_reg__
  28 000a 8F93      		push r24
  29 000c 9F93      		push r25
  30 000e EF93      		push r30
  31 0010 FF93      		push r31
  32               	/* prologue end (size=9) */
  33               	.LM2:
  34 0012 9091 C600 		lds r25,198
  35               	.LVL0:
  36               	.LM3:
  37 0016 8091 0000 		lds r24,sensors_flag
  38 001a 8823      		tst r24
  39 001c 01F0      		breq .L5
  40               	.LM4:
  41 001e 8091 0000 		lds r24,sensors_index
  42 0022 E82F      		mov r30,r24
  43 0024 F0E0      		ldi r31,lo8(0)
  44 0026 E050      		subi r30,lo8(-(sensors_in))
  45 0028 F040      		sbci r31,hi8(-(sensors_in))
  46 002a 9083      		st Z,r25
  47 002c 8F5F      		subi r24,lo8(-(1))
  48 002e 8093 0000 		sts sensors_index,r24
  49               	.LM5:
  50 0032 8091 0000 		lds r24,sensors_index
  51 0036 8433      		cpi r24,lo8(52)
  52 0038 00F0      		brlo .L5
  53               	.LM6:
  54 003a 1092 0000 		sts sensors_flag,__zero_reg__
  55               	.L5:
  56               	/* epilogue: frame size=0 */
  57 003e FF91      		pop r31
  58 0040 EF91      		pop r30
  59 0042 9F91      		pop r25
  60 0044 8F91      		pop r24
  61 0046 0F90      		pop __tmp_reg__
  62 0048 0FBE      		out __SREG__,__tmp_reg__
  63 004a 0F90      		pop __tmp_reg__
  64 004c 1F90      		pop __zero_reg__
  65 004e 1895      		reti
  66               	/* epilogue end (size=9) */
  67               	/* function __vector_18 size 40 (22) */
  68               	.LFE3:
  70               	.global	__vector_11
  72               	__vector_11:
  73               	.LFB4:
  74               	.LM7:
  75               	/* prologue: frame size=0 */
  76 0050 1F92      		push __zero_reg__
  77 0052 0F92      		push __tmp_reg__
  78 0054 0FB6      		in __tmp_reg__,__SREG__
  79 0056 0F92      		push __tmp_reg__
  80 0058 1124      		clr __zero_reg__
  81 005a 8F93      		push r24
  82 005c 9F93      		push r25
  83               	/* prologue end (size=7) */
  84               	.LM8:
  85 005e 8091 0000 		lds r24,timer_cnt
  86 0062 9091 0000 		lds r25,(timer_cnt)+1
  87 0066 892B      		or r24,r25
  88 0068 01F0      		breq .L7
  89               	.LM9:
  90 006a 8091 0000 		lds r24,timer_cnt
  91 006e 9091 0000 		lds r25,(timer_cnt)+1
  92 0072 0197      		sbiw r24,1
  93 0074 9093 0000 		sts (timer_cnt)+1,r25
  94 0078 8093 0000 		sts timer_cnt,r24
  95 007c 00C0      		rjmp .L10
  96               	.L7:
  97               	.LM10:
  98 007e 1092 0000 		sts timer_on,__zero_reg__
  99               	.L10:
 100               	/* epilogue: frame size=0 */
 101 0082 9F91      		pop r25
 102 0084 8F91      		pop r24
 103 0086 0F90      		pop __tmp_reg__
 104 0088 0FBE      		out __SREG__,__tmp_reg__
 105 008a 0F90      		pop __tmp_reg__
 106 008c 1F90      		pop __zero_reg__
 107 008e 1895      		reti
 108               	/* epilogue end (size=7) */
 109               	/* function __vector_11 size 32 (18) */
 110               	.LFE4:
 112               	.global	byteTx
 114               	byteTx:
 115               	.LFB5:
 116               	.LM11:
 117               	/* prologue: frame size=0 */
 118               	/* prologue end (size=0) */
 119               	.LVL1:
 120 0090 982F      		mov r25,r24
 121               	.LVL2:
 122               	.L13:
 123               	.LM12:
 124 0092 8091 C000 		lds r24,192
 125 0096 85FF      		sbrs r24,5
 126 0098 00C0      		rjmp .L13
 127               	.LM13:
 128 009a 9093 C600 		sts 198,r25
 129               	/* epilogue: frame size=0 */
 130 009e 0895      		ret
 131               	/* epilogue end (size=1) */
 132               	/* function byteTx size 8 (7) */
 133               	.LFE5:
 135               	.global	delayMs
 137               	delayMs:
 138               	.LFB6:
 139               	.LM14:
 140               	/* prologue: frame size=0 */
 141               	/* prologue end (size=0) */
 142               	.LVL3:
 143               	.LM15:
 144 00a0 21E0      		ldi r18,lo8(1)
 145 00a2 2093 0000 		sts timer_on,r18
 146               	.LM16:
 147 00a6 9093 0000 		sts (timer_cnt)+1,r25
 148 00aa 8093 0000 		sts timer_cnt,r24
 149               	.L19:
 150               	.LM17:
 151 00ae 8091 0000 		lds r24,timer_on
 152               	.LVL4:
 153 00b2 8823      		tst r24
 154 00b4 01F4      		brne .L19
 155               	/* epilogue: frame size=0 */
 156 00b6 0895      		ret
 157               	/* epilogue end (size=1) */
 158               	/* function delayMs size 12 (11) */
 159               	.LFE6:
 161               	.global	ReadX
 163               	ReadX:
 164               	.LFB7:
 165               	.LM18:
 166               	/* prologue: frame size=0 */
 167               	/* prologue end (size=0) */
 168               	.L26:
 169               	.LM19:
 170 00b8 8091 7A00 		lds r24,122
 171 00bc 86FD      		sbrc r24,6
 172 00be 00C0      		rjmp .L26
 173               	.LM20:
 174 00c0 8091 7A00 		lds r24,122
 175 00c4 8064      		ori r24,lo8(64)
 176 00c6 8093 7A00 		sts 122,r24
 177               	.L28:
 178               	.LM21:
 179 00ca 8091 7A00 		lds r24,122
 180 00ce 86FD      		sbrc r24,6
 181 00d0 00C0      		rjmp .L28
 182               	.LM22:
 183 00d2 8091 7800 		lds r24,120
 184 00d6 9091 7900 		lds r25,(120)+1
 185 00da 9093 0000 		sts (X)+1,r25
 186 00de 8093 0000 		sts X,r24
 187               	/* epilogue: frame size=0 */
 188 00e2 0895      		ret
 189               	/* epilogue end (size=1) */
 190               	/* function ReadX size 22 (21) */
 191               	.LFE7:
 193               	.global	initialize
 195               	initialize:
 196               	.LFB9:
 197               	.LM23:
 198               	/* prologue: frame size=0 */
 199               	/* prologue end (size=0) */
 200               	.LM24:
 201               	/* #APP */
 202 00e4 F894      		cli
 203               	.LM25:
 204               	/* #NOAPP */
 205 00e6 80E1      		ldi r24,lo8(16)
 206 00e8 84B9      		out 36-0x20,r24
 207               	.LM26:
 208 00ea 8FEC      		ldi r24,lo8(-49)
 209 00ec 85B9      		out 37-0x20,r24
 210               	.LM27:
 211 00ee 17B8      		out 39-0x20,__zero_reg__
 212               	.LM28:
 213 00f0 8FEF      		ldi r24,lo8(-1)
 214 00f2 88B9      		out 40-0x20,r24
 215               	.LM29:
 216 00f4 86EE      		ldi r24,lo8(-26)
 217 00f6 8AB9      		out 42-0x20,r24
 218               	.LM30:
 219 00f8 8DE7      		ldi r24,lo8(125)
 220 00fa 8BB9      		out 43-0x20,r24
 221               	.LM31:
 222 00fc 1092 8000 		sts 128,__zero_reg__
 223               	.LM32:
 224 0100 8CE0      		ldi r24,lo8(12)
 225 0102 8093 8100 		sts 129,r24
 226               	.LM33:
 227 0106 87E4      		ldi r24,lo8(71)
 228 0108 90E0      		ldi r25,hi8(71)
 229 010a 9093 8900 		sts (136)+1,r25
 230 010e 8093 8800 		sts 136,r24
 231               	.LM34:
 232 0112 82E0      		ldi r24,lo8(2)
 233 0114 8093 6F00 		sts 111,r24
 234               	.LM35:
 235 0118 83E1      		ldi r24,lo8(19)
 236 011a 90E0      		ldi r25,hi8(19)
 237 011c 9093 C500 		sts (196)+1,r25
 238 0120 8093 C400 		sts 196,r24
 239               	.LM36:
 240 0124 88E9      		ldi r24,lo8(-104)
 241 0126 8093 C100 		sts 193,r24
 242               	.LM37:
 243 012a 86E0      		ldi r24,lo8(6)
 244 012c 8093 C200 		sts 194,r24
 245               	.LM38:
 246 0130 E4E6      		ldi r30,lo8(100)
 247 0132 F0E0      		ldi r31,hi8(100)
 248 0134 8081      		ld r24,Z
 249 0136 8E7F      		andi r24,lo8(-2)
 250 0138 8083      		st Z,r24
 251               	.LM39:
 252 013a EAE7      		ldi r30,lo8(122)
 253 013c F0E0      		ldi r31,hi8(122)
 254 013e 8081      		ld r24,Z
 255 0140 8768      		ori r24,lo8(-121)
 256 0142 8083      		st Z,r24
 257               	.LM40:
 258 0144 ECE7      		ldi r30,lo8(124)
 259 0146 F0E0      		ldi r31,hi8(124)
 260 0148 8081      		ld r24,Z
 261 014a 8664      		ori r24,lo8(70)
 262 014c 8083      		st Z,r24
 263               	.LM41:
 264               	/* #APP */
 265 014e 7894      		sei
 266               	/* #NOAPP */
 267               	/* epilogue: frame size=0 */
 268 0150 0895      		ret
 269               	/* epilogue end (size=1) */
 270               	/* function initialize size 57 (56) */
 271               	.LFE9:
 273               	.global	randomAngle
 275               	randomAngle:
 276               	.LFB13:
 277               	.LM42:
 278               	/* prologue: frame size=0 */
 279               	/* prologue end (size=0) */
 280               	.LM43:
 281 0152 0E94 0000 		call random
 282 0156 DC01      		movw r26,r24
 283 0158 CB01      		movw r24,r22
 284 015a 9070      		andi r25,hi8(255)
 285 015c 9695      		lsr r25
 286 015e 8795      		ror r24
 287               	.LM44:
 288 0160 C596      		adiw r24,53
 289               	/* epilogue: frame size=0 */
 290 0162 0895      		ret
 291               	/* epilogue end (size=1) */
 292               	/* function randomAngle size 10 (9) */
 293               	.LFE13:
 295               	.global	defineSongs
 297               	defineSongs:
 298               	.LFB14:
 299               	.LM45:
 300               	/* prologue: frame size=0 */
 301               	/* prologue end (size=0) */
 302               	.L40:
 303               	.LBB94:
 304               	.LBB95:
 305               	.LM46:
 306 0164 8091 C000 		lds r24,192
 307 0168 85FF      		sbrs r24,5
 308 016a 00C0      		rjmp .L40
 309               	.LM47:
 310 016c 8CE8      		ldi r24,lo8(-116)
 311 016e 8093 C600 		sts 198,r24
 312               	.L42:
 313               	.LBE95:
 314               	.LBE94:
 315               	.LBB96:
 316               	.LBB97:
 317               	.LM48:
 318 0172 8091 C000 		lds r24,192
 319 0176 85FF      		sbrs r24,5
 320 0178 00C0      		rjmp .L42
 321               	.LM49:
 322 017a 1092 C600 		sts 198,__zero_reg__
 323               	.L44:
 324               	.LBE97:
 325               	.LBE96:
 326               	.LBB98:
 327               	.LBB99:
 328               	.LM50:
 329 017e 8091 C000 		lds r24,192
 330 0182 85FF      		sbrs r24,5
 331 0184 00C0      		rjmp .L44
 332               	.LM51:
 333 0186 84E0      		ldi r24,lo8(4)
 334 0188 8093 C600 		sts 198,r24
 335               	.L46:
 336               	.LBE99:
 337               	.LBE98:
 338               	.LBB100:
 339               	.LBB101:
 340               	.LM52:
 341 018c 8091 C000 		lds r24,192
 342 0190 85FF      		sbrs r24,5
 343 0192 00C0      		rjmp .L46
 344               	.LM53:
 345 0194 8CE3      		ldi r24,lo8(60)
 346 0196 8093 C600 		sts 198,r24
 347               	.L48:
 348               	.LBE101:
 349               	.LBE100:
 350               	.LBB102:
 351               	.LBB103:
 352               	.LM54:
 353 019a 8091 C000 		lds r24,192
 354 019e 85FF      		sbrs r24,5
 355 01a0 00C0      		rjmp .L48
 356               	.LM55:
 357 01a2 86E0      		ldi r24,lo8(6)
 358 01a4 8093 C600 		sts 198,r24
 359               	.L50:
 360               	.LBE103:
 361               	.LBE102:
 362               	.LBB104:
 363               	.LBB105:
 364               	.LM56:
 365 01a8 8091 C000 		lds r24,192
 366 01ac 85FF      		sbrs r24,5
 367 01ae 00C0      		rjmp .L50
 368               	.LM57:
 369 01b0 88E4      		ldi r24,lo8(72)
 370 01b2 8093 C600 		sts 198,r24
 371               	.L52:
 372               	.LBE105:
 373               	.LBE104:
 374               	.LBB106:
 375               	.LBB107:
 376               	.LM58:
 377 01b6 8091 C000 		lds r24,192
 378 01ba 85FF      		sbrs r24,5
 379 01bc 00C0      		rjmp .L52
 380               	.LM59:
 381 01be 86E0      		ldi r24,lo8(6)
 382 01c0 8093 C600 		sts 198,r24
 383               	.L54:
 384               	.LBE107:
 385               	.LBE106:
 386               	.LBB108:
 387               	.LBB109:
 388               	.LM60:
 389 01c4 8091 C000 		lds r24,192
 390 01c8 85FF      		sbrs r24,5
 391 01ca 00C0      		rjmp .L54
 392               	.LM61:
 393 01cc 84E5      		ldi r24,lo8(84)
 394 01ce 8093 C600 		sts 198,r24
 395               	.L56:
 396               	.LBE109:
 397               	.LBE108:
 398               	.LBB110:
 399               	.LBB111:
 400               	.LM62:
 401 01d2 8091 C000 		lds r24,192
 402 01d6 85FF      		sbrs r24,5
 403 01d8 00C0      		rjmp .L56
 404               	.LM63:
 405 01da 86E0      		ldi r24,lo8(6)
 406 01dc 8093 C600 		sts 198,r24
 407               	.L58:
 408               	.LBE111:
 409               	.LBE110:
 410               	.LBB112:
 411               	.LBB113:
 412               	.LM64:
 413 01e0 8091 C000 		lds r24,192
 414 01e4 85FF      		sbrs r24,5
 415 01e6 00C0      		rjmp .L58
 416               	.LM65:
 417 01e8 80E6      		ldi r24,lo8(96)
 418 01ea 8093 C600 		sts 198,r24
 419               	.L60:
 420               	.LBE113:
 421               	.LBE112:
 422               	.LBB114:
 423               	.LBB115:
 424               	.LM66:
 425 01ee 8091 C000 		lds r24,192
 426 01f2 85FF      		sbrs r24,5
 427 01f4 00C0      		rjmp .L60
 428               	.LM67:
 429 01f6 86E0      		ldi r24,lo8(6)
 430 01f8 8093 C600 		sts 198,r24
 431               	.L62:
 432               	.LBE115:
 433               	.LBE114:
 434               	.LBB116:
 435               	.LBB117:
 436               	.LM68:
 437 01fc 8091 C000 		lds r24,192
 438 0200 85FF      		sbrs r24,5
 439 0202 00C0      		rjmp .L62
 440               	.LM69:
 441 0204 8CE8      		ldi r24,lo8(-116)
 442 0206 8093 C600 		sts 198,r24
 443               	.L64:
 444               	.LBE117:
 445               	.LBE116:
 446               	.LBB118:
 447               	.LBB119:
 448               	.LM70:
 449 020a 8091 C000 		lds r24,192
 450 020e 85FF      		sbrs r24,5
 451 0210 00C0      		rjmp .L64
 452               	.LM71:
 453 0212 81E0      		ldi r24,lo8(1)
 454 0214 8093 C600 		sts 198,r24
 455               	.L66:
 456               	.LBE119:
 457               	.LBE118:
 458               	.LBB120:
 459               	.LBB121:
 460               	.LM72:
 461 0218 8091 C000 		lds r24,192
 462 021c 85FF      		sbrs r24,5
 463 021e 00C0      		rjmp .L66
 464               	.LM73:
 465 0220 86E0      		ldi r24,lo8(6)
 466 0222 8093 C600 		sts 198,r24
 467               	.L68:
 468               	.LBE121:
 469               	.LBE120:
 470               	.LBB122:
 471               	.LBB123:
 472               	.LM74:
 473 0226 8091 C000 		lds r24,192
 474 022a 85FF      		sbrs r24,5
 475 022c 00C0      		rjmp .L68
 476               	.LM75:
 477 022e 85E4      		ldi r24,lo8(69)
 478 0230 8093 C600 		sts 198,r24
 479               	.L70:
 480               	.LBE123:
 481               	.LBE122:
 482               	.LBB124:
 483               	.LBB125:
 484               	.LM76:
 485 0234 8091 C000 		lds r24,192
 486 0238 85FF      		sbrs r24,5
 487 023a 00C0      		rjmp .L70
 488               	.LM77:
 489 023c 82E1      		ldi r24,lo8(18)
 490 023e 8093 C600 		sts 198,r24
 491               	.L72:
 492               	.LBE125:
 493               	.LBE124:
 494               	.LBB126:
 495               	.LBB127:
 496               	.LM78:
 497 0242 8091 C000 		lds r24,192
 498 0246 85FF      		sbrs r24,5
 499 0248 00C0      		rjmp .L72
 500               	.LM79:
 501 024a 88E4      		ldi r24,lo8(72)
 502 024c 8093 C600 		sts 198,r24
 503               	.L74:
 504               	.LBE127:
 505               	.LBE126:
 506               	.LBB128:
 507               	.LBB129:
 508               	.LM80:
 509 0250 8091 C000 		lds r24,192
 510 0254 85FF      		sbrs r24,5
 511 0256 00C0      		rjmp .L74
 512               	.LM81:
 513 0258 8CE0      		ldi r24,lo8(12)
 514 025a 8093 C600 		sts 198,r24
 515               	.L76:
 516               	.LBE129:
 517               	.LBE128:
 518               	.LBB130:
 519               	.LBB131:
 520               	.LM82:
 521 025e 8091 C000 		lds r24,192
 522 0262 85FF      		sbrs r24,5
 523 0264 00C0      		rjmp .L76
 524               	.LM83:
 525 0266 8AE4      		ldi r24,lo8(74)
 526 0268 8093 C600 		sts 198,r24
 527               	.L78:
 528               	.LBE131:
 529               	.LBE130:
 530               	.LBB132:
 531               	.LBB133:
 532               	.LM84:
 533 026c 8091 C000 		lds r24,192
 534 0270 85FF      		sbrs r24,5
 535 0272 00C0      		rjmp .L78
 536               	.LM85:
 537 0274 8CE0      		ldi r24,lo8(12)
 538 0276 8093 C600 		sts 198,r24
 539               	.L80:
 540               	.LBE133:
 541               	.LBE132:
 542               	.LBB134:
 543               	.LBB135:
 544               	.LM86:
 545 027a 8091 C000 		lds r24,192
 546 027e 85FF      		sbrs r24,5
 547 0280 00C0      		rjmp .L80
 548               	.LM87:
 549 0282 88E4      		ldi r24,lo8(72)
 550 0284 8093 C600 		sts 198,r24
 551               	.L82:
 552               	.LBE135:
 553               	.LBE134:
 554               	.LBB136:
 555               	.LBB137:
 556               	.LM88:
 557 0288 8091 C000 		lds r24,192
 558 028c 85FF      		sbrs r24,5
 559 028e 00C0      		rjmp .L82
 560               	.LM89:
 561 0290 8CE0      		ldi r24,lo8(12)
 562 0292 8093 C600 		sts 198,r24
 563               	.L84:
 564               	.LBE137:
 565               	.LBE136:
 566               	.LBB138:
 567               	.LBB139:
 568               	.LM90:
 569 0296 8091 C000 		lds r24,192
 570 029a 85FF      		sbrs r24,5
 571 029c 00C0      		rjmp .L84
 572               	.LM91:
 573 029e 85E4      		ldi r24,lo8(69)
 574 02a0 8093 C600 		sts 198,r24
 575               	.L86:
 576               	.LBE139:
 577               	.LBE138:
 578               	.LBB140:
 579               	.LBB141:
 580               	.LM92:
 581 02a4 8091 C000 		lds r24,192
 582 02a8 85FF      		sbrs r24,5
 583 02aa 00C0      		rjmp .L86
 584               	.LM93:
 585 02ac 8CE0      		ldi r24,lo8(12)
 586 02ae 8093 C600 		sts 198,r24
 587               	.L88:
 588               	.LBE141:
 589               	.LBE140:
 590               	.LBB142:
 591               	.LBB143:
 592               	.LM94:
 593 02b2 8091 C000 		lds r24,192
 594 02b6 85FF      		sbrs r24,5
 595 02b8 00C0      		rjmp .L88
 596               	.LM95:
 597 02ba 8DE4      		ldi r24,lo8(77)
 598 02bc 8093 C600 		sts 198,r24
 599               	.L90:
 600               	.LBE143:
 601               	.LBE142:
 602               	.LBB144:
 603               	.LBB145:
 604               	.LM96:
 605 02c0 8091 C000 		lds r24,192
 606 02c4 85FF      		sbrs r24,5
 607 02c6 00C0      		rjmp .L90
 608               	.LM97:
 609 02c8 88E1      		ldi r24,lo8(24)
 610 02ca 8093 C600 		sts 198,r24
 611               	.L92:
 612               	.LBE145:
 613               	.LBE144:
 614               	.LBB146:
 615               	.LBB147:
 616               	.LM98:
 617 02ce 8091 C000 		lds r24,192
 618 02d2 85FF      		sbrs r24,5
 619 02d4 00C0      		rjmp .L92
 620               	.LM99:
 621 02d6 8CE8      		ldi r24,lo8(-116)
 622 02d8 8093 C600 		sts 198,r24
 623               	.L94:
 624               	.LBE147:
 625               	.LBE146:
 626               	.LBB148:
 627               	.LBB149:
 628               	.LM100:
 629 02dc 8091 C000 		lds r24,192
 630 02e0 85FF      		sbrs r24,5
 631 02e2 00C0      		rjmp .L94
 632               	.LM101:
 633 02e4 82E0      		ldi r24,lo8(2)
 634 02e6 8093 C600 		sts 198,r24
 635               	.L96:
 636               	.LBE149:
 637               	.LBE148:
 638               	.LBB150:
 639               	.LBB151:
 640               	.LM102:
 641 02ea 8091 C000 		lds r24,192
 642 02ee 85FF      		sbrs r24,5
 643 02f0 00C0      		rjmp .L96
 644               	.LM103:
 645 02f2 82E0      		ldi r24,lo8(2)
 646 02f4 8093 C600 		sts 198,r24
 647               	.L98:
 648               	.LBE151:
 649               	.LBE150:
 650               	.LBB152:
 651               	.LBB153:
 652               	.LM104:
 653 02f8 8091 C000 		lds r24,192
 654 02fc 85FF      		sbrs r24,5
 655 02fe 00C0      		rjmp .L98
 656               	.LM105:
 657 0300 8AE4      		ldi r24,lo8(74)
 658 0302 8093 C600 		sts 198,r24
 659               	.L100:
 660               	.LBE153:
 661               	.LBE152:
 662               	.LBB154:
 663               	.LBB155:
 664               	.LM106:
 665 0306 8091 C000 		lds r24,192
 666 030a 85FF      		sbrs r24,5
 667 030c 00C0      		rjmp .L100
 668               	.LM107:
 669 030e 8CE0      		ldi r24,lo8(12)
 670 0310 8093 C600 		sts 198,r24
 671               	.L102:
 672               	.LBE155:
 673               	.LBE154:
 674               	.LBB156:
 675               	.LBB157:
 676               	.LM108:
 677 0314 8091 C000 		lds r24,192
 678 0318 85FF      		sbrs r24,5
 679 031a 00C0      		rjmp .L102
 680               	.LM109:
 681 031c 8BE3      		ldi r24,lo8(59)
 682 031e 8093 C600 		sts 198,r24
 683               	.L104:
 684               	.LBE157:
 685               	.LBE156:
 686               	.LBB158:
 687               	.LBB159:
 688               	.LM110:
 689 0322 8091 C000 		lds r24,192
 690 0326 85FF      		sbrs r24,5
 691 0328 00C0      		rjmp .L104
 692               	.LM111:
 693 032a 88E1      		ldi r24,lo8(24)
 694 032c 8093 C600 		sts 198,r24
 695               	.L106:
 696               	.LBE159:
 697               	.LBE158:
 698               	.LBB160:
 699               	.LBB161:
 700               	.LM112:
 701 0330 8091 C000 		lds r24,192
 702 0334 85FF      		sbrs r24,5
 703 0336 00C0      		rjmp .L106
 704               	.LM113:
 705 0338 8CE8      		ldi r24,lo8(-116)
 706 033a 8093 C600 		sts 198,r24
 707               	.L108:
 708               	.LBE161:
 709               	.LBE160:
 710               	.LBB162:
 711               	.LBB163:
 712               	.LM114:
 713 033e 8091 C000 		lds r24,192
 714 0342 85FF      		sbrs r24,5
 715 0344 00C0      		rjmp .L108
 716               	.LM115:
 717 0346 83E0      		ldi r24,lo8(3)
 718 0348 8093 C600 		sts 198,r24
 719               	.L110:
 720               	.LBE163:
 721               	.LBE162:
 722               	.LBB164:
 723               	.LBB165:
 724               	.LM116:
 725 034c 8091 C000 		lds r24,192
 726 0350 85FF      		sbrs r24,5
 727 0352 00C0      		rjmp .L110
 728               	.LM117:
 729 0354 85E0      		ldi r24,lo8(5)
 730 0356 8093 C600 		sts 198,r24
 731               	.L112:
 732               	.LBE165:
 733               	.LBE164:
 734               	.LBB166:
 735               	.LBB167:
 736               	.LM118:
 737 035a 8091 C000 		lds r24,192
 738 035e 85FF      		sbrs r24,5
 739 0360 00C0      		rjmp .L112
 740               	.LM119:
 741 0362 8DE4      		ldi r24,lo8(77)
 742 0364 8093 C600 		sts 198,r24
 743               	.L114:
 744               	.LBE167:
 745               	.LBE166:
 746               	.LBB168:
 747               	.LBB169:
 748               	.LM120:
 749 0368 8091 C000 		lds r24,192
 750 036c 85FF      		sbrs r24,5
 751 036e 00C0      		rjmp .L114
 752               	.LM121:
 753 0370 82E1      		ldi r24,lo8(18)
 754 0372 8093 C600 		sts 198,r24
 755               	.L116:
 756               	.LBE169:
 757               	.LBE168:
 758               	.LBB170:
 759               	.LBB171:
 760               	.LM122:
 761 0376 8091 C000 		lds r24,192
 762 037a 85FF      		sbrs r24,5
 763 037c 00C0      		rjmp .L116
 764               	.LM123:
 765 037e 8AE4      		ldi r24,lo8(74)
 766 0380 8093 C600 		sts 198,r24
 767               	.L118:
 768               	.LBE171:
 769               	.LBE170:
 770               	.LBB172:
 771               	.LBB173:
 772               	.LM124:
 773 0384 8091 C000 		lds r24,192
 774 0388 85FF      		sbrs r24,5
 775 038a 00C0      		rjmp .L118
 776               	.LM125:
 777 038c 8CE0      		ldi r24,lo8(12)
 778 038e 8093 C600 		sts 198,r24
 779               	.L120:
 780               	.LBE173:
 781               	.LBE172:
 782               	.LBB174:
 783               	.LBB175:
 784               	.LM126:
 785 0392 8091 C000 		lds r24,192
 786 0396 85FF      		sbrs r24,5
 787 0398 00C0      		rjmp .L120
 788               	.LM127:
 789 039a 88E4      		ldi r24,lo8(72)
 790 039c 8093 C600 		sts 198,r24
 791               	.L122:
 792               	.LBE175:
 793               	.LBE174:
 794               	.LBB176:
 795               	.LBB177:
 796               	.LM128:
 797 03a0 8091 C000 		lds r24,192
 798 03a4 85FF      		sbrs r24,5
 799 03a6 00C0      		rjmp .L122
 800               	.LM129:
 801 03a8 8CE0      		ldi r24,lo8(12)
 802 03aa 8093 C600 		sts 198,r24
 803               	.L124:
 804               	.LBE177:
 805               	.LBE176:
 806               	.LBB178:
 807               	.LBB179:
 808               	.LM130:
 809 03ae 8091 C000 		lds r24,192
 810 03b2 85FF      		sbrs r24,5
 811 03b4 00C0      		rjmp .L124
 812               	.LM131:
 813 03b6 85E4      		ldi r24,lo8(69)
 814 03b8 8093 C600 		sts 198,r24
 815               	.L126:
 816               	.LBE179:
 817               	.LBE178:
 818               	.LBB180:
 819               	.LBB181:
 820               	.LM132:
 821 03bc 8091 C000 		lds r24,192
 822 03c0 85FF      		sbrs r24,5
 823 03c2 00C0      		rjmp .L126
 824               	.LM133:
 825 03c4 8CE0      		ldi r24,lo8(12)
 826 03c6 8093 C600 		sts 198,r24
 827               	.L128:
 828               	.LBE181:
 829               	.LBE180:
 830               	.LBB182:
 831               	.LBB183:
 832               	.LM134:
 833 03ca 8091 C000 		lds r24,192
 834 03ce 85FF      		sbrs r24,5
 835 03d0 00C0      		rjmp .L128
 836               	.LM135:
 837 03d2 81E4      		ldi r24,lo8(65)
 838 03d4 8093 C600 		sts 198,r24
 839               	.L130:
 840               	.LBE183:
 841               	.LBE182:
 842               	.LBB184:
 843               	.LBB185:
 844               	.LM136:
 845 03d8 8091 C000 		lds r24,192
 846 03dc 85FF      		sbrs r24,5
 847 03de 00C0      		rjmp .L130
 848               	.LM137:
 849 03e0 88E1      		ldi r24,lo8(24)
 850 03e2 8093 C600 		sts 198,r24
 851               	.LBE185:
 852               	.LBE184:
 853               	/* epilogue: frame size=0 */
 854 03e6 0895      		ret
 855               	/* epilogue end (size=1) */
 856               	/* function defineSongs size 322 (321) */
 857               	.LFE14:
 859               	.global	drive
 861               	drive:
 862               	.LFB12:
 863               	.LM138:
 864               	/* prologue: frame size=0 */
 865               	/* prologue end (size=0) */
 866               	.LVL5:
 867 03e8 AC01      		movw r20,r24
 868               	.LVL6:
 869               	.L226:
 870               	.LBB196:
 871               	.LBB197:
 872               	.LM139:
 873 03ea 8091 C000 		lds r24,192
 874 03ee 85FF      		sbrs r24,5
 875 03f0 00C0      		rjmp .L226
 876               	.LM140:
 877 03f2 89E8      		ldi r24,lo8(-119)
 878 03f4 8093 C600 		sts 198,r24
 879               	.LBE197:
 880               	.LBE196:
 881               	.LM141:
 882 03f8 252F      		mov r18,r21
 883 03fa 3327      		clr r19
 884 03fc 27FD      		sbrc r18,7
 885 03fe 3A95      		dec r19
 886               	.L228:
 887               	.LBB198:
 888               	.LBB199:
 889               	.LM142:
 890 0400 8091 C000 		lds r24,192
 891 0404 85FF      		sbrs r24,5
 892 0406 00C0      		rjmp .L228
 893               	.LM143:
 894 0408 2093 C600 		sts 198,r18
 895               	.L230:
 896               	.LBE199:
 897               	.LBE198:
 898               	.LBB200:
 899               	.LBB201:
 900               	.LM144:
 901 040c 8091 C000 		lds r24,192
 902 0410 85FF      		sbrs r24,5
 903 0412 00C0      		rjmp .L230
 904               	.LM145:
 905 0414 4093 C600 		sts 198,r20
 906               	.LBE201:
 907               	.LBE200:
 908               	.LM146:
 909 0418 272F      		mov r18,r23
 910 041a 3327      		clr r19
 911 041c 27FD      		sbrc r18,7
 912 041e 3A95      		dec r19
 913               	.L232:
 914               	.LBB202:
 915               	.LBB203:
 916               	.LM147:
 917 0420 8091 C000 		lds r24,192
 918 0424 85FF      		sbrs r24,5
 919 0426 00C0      		rjmp .L232
 920               	.LM148:
 921 0428 2093 C600 		sts 198,r18
 922               	.L234:
 923               	.LBE203:
 924               	.LBE202:
 925               	.LBB204:
 926               	.LBB205:
 927               	.LM149:
 928 042c 8091 C000 		lds r24,192
 929 0430 85FF      		sbrs r24,5
 930 0432 00C0      		rjmp .L234
 931               	.LM150:
 932 0434 6093 C600 		sts 198,r22
 933               	.LBE205:
 934               	.LBE204:
 935               	/* epilogue: frame size=0 */
 936 0438 0895      		ret
 937               	/* epilogue end (size=1) */
 938               	/* function drive size 41 (40) */
 939               	.LFE12:
 941               	.global	delayAndUpdateSensors
 943               	delayAndUpdateSensors:
 944               	.LFB8:
 945               	.LM151:
 946               	/* prologue: frame size=0 */
 947               	/* prologue end (size=0) */
 948               	.LVL7:
 949               	.LM152:
 950 043a 21E0      		ldi r18,lo8(1)
 951 043c 2093 0000 		sts timer_on,r18
 952               	.LM153:
 953 0440 9093 0000 		sts (timer_cnt)+1,r25
 954 0444 8093 0000 		sts timer_cnt,r24
 955 0448 00C0      		rjmp .L268
 956               	.LVL8:
 957               	.L249:
 958               	.LM154:
 959 044a 8091 0000 		lds r24,sensors_flag
 960 044e 8823      		tst r24
 961 0450 01F0      		breq .+2
 962 0452 00C0      		rjmp .L268
 963 0454 20E0      		ldi r18,lo8(0)
 964 0456 30E0      		ldi r19,hi8(0)
 965               	.L251:
 966               	.LM155:
 967 0458 F901      		movw r30,r18
 968 045a E050      		subi r30,lo8(-(sensors_in))
 969 045c F040      		sbci r31,hi8(-(sensors_in))
 970 045e 8081      		ld r24,Z
 971 0460 F901      		movw r30,r18
 972 0462 E050      		subi r30,lo8(-(sensors))
 973 0464 F040      		sbci r31,hi8(-(sensors))
 974 0466 8083      		st Z,r24
 975 0468 2F5F      		subi r18,lo8(-(1))
 976 046a 3F4F      		sbci r19,hi8(-(1))
 977               	.LM156:
 978 046c 2433      		cpi r18,52
 979 046e 3105      		cpc r19,__zero_reg__
 980 0470 01F4      		brne .L251
 981               	.LM157:
 982 0472 4091 0000 		lds r20,distance
 983 0476 5091 0000 		lds r21,(distance)+1
 984 047a 8091 0000 		lds r24,sensors+12
 985 047e 2091 0000 		lds r18,sensors+13
 986 0482 90E0      		ldi r25,lo8(0)
 987 0484 982F      		mov r25,r24
 988 0486 8827      		clr r24
 989 0488 30E0      		ldi r19,lo8(0)
 990 048a 822B      		or r24,r18
 991 048c 932B      		or r25,r19
 992 048e 840F      		add r24,r20
 993 0490 951F      		adc r25,r21
 994 0492 9093 0000 		sts (distance)+1,r25
 995 0496 8093 0000 		sts distance,r24
 996               	.LM158:
 997 049a 4091 0000 		lds r20,angle
 998 049e 5091 0000 		lds r21,(angle)+1
 999 04a2 8091 0000 		lds r24,sensors+14
 1000 04a6 2091 0000 		lds r18,sensors+15
 1001 04aa 90E0      		ldi r25,lo8(0)
 1002 04ac 982F      		mov r25,r24
 1003 04ae 8827      		clr r24
 1004 04b0 30E0      		ldi r19,lo8(0)
 1005 04b2 822B      		or r24,r18
 1006 04b4 932B      		or r25,r19
 1007 04b6 840F      		add r24,r20
 1008 04b8 951F      		adc r25,r21
 1009 04ba 9093 0000 		sts (angle)+1,r25
 1010 04be 8093 0000 		sts angle,r24
 1011               	.L253:
 1012               	.LBB210:
 1013               	.LBB211:
 1014               	.LM159:
 1015 04c2 8091 C000 		lds r24,192
 1016 04c6 85FF      		sbrs r24,5
 1017 04c8 00C0      		rjmp .L253
 1018               	.LM160:
 1019 04ca 8EE8      		ldi r24,lo8(-114)
 1020 04cc 8093 C600 		sts 198,r24
 1021               	.L255:
 1022               	.LBE211:
 1023               	.LBE210:
 1024               	.LBB212:
 1025               	.LBB213:
 1026               	.LM161:
 1027 04d0 8091 C000 		lds r24,192
 1028 04d4 85FF      		sbrs r24,5
 1029 04d6 00C0      		rjmp .L255
 1030               	.LM162:
 1031 04d8 86E0      		ldi r24,lo8(6)
 1032 04da 8093 C600 		sts 198,r24
 1033               	.LBE213:
 1034               	.LBE212:
 1035               	.LM163:
 1036 04de 1092 0000 		sts sensors_index,__zero_reg__
 1037               	.LM164:
 1038 04e2 81E0      		ldi r24,lo8(1)
 1039 04e4 8093 0000 		sts sensors_flag,r24
 1040               	.LVL9:
 1041               	.L268:
 1042               	.LM165:
 1043 04e8 8091 0000 		lds r24,timer_on
 1044               	.LVL10:
 1045 04ec 8823      		tst r24
 1046 04ee 01F0      		breq .+2
 1047 04f0 00C0      		rjmp .L249
 1048               	/* epilogue: frame size=0 */
 1049 04f2 0895      		ret
 1050               	/* epilogue end (size=1) */
 1051               	/* function delayAndUpdateSensors size 93 (92) */
 1052               	.LFE8:
 1054               	.global	main
 1056               	main:
 1057               	.LFB2:
 1058               	.LM166:
 1059               	/* prologue: frame size=0 */
 1060               	/* prologue end (size=0) */
 1061               	.LM167:
 1062 04f4 0E94 0000 		call initialize
 1063               	.LM168:
 1064 04f8 8BB1      		in r24,43-0x20
 1065 04fa 8066      		ori r24,lo8(96)
 1066 04fc 8BB9      		out 43-0x20,r24
 1067               	.L270:
 1068               	.LM169:
 1069 04fe 8BB1      		in r24,43-0x20
 1070 0500 8066      		ori r24,lo8(96)
 1071 0502 8BB9      		out 43-0x20,r24
 1072               	.LBB218:
 1073               	.LBB219:
 1074               	.LM170:
 1075 0504 81E0      		ldi r24,lo8(1)
 1076 0506 8093 0000 		sts timer_on,r24
 1077               	.LM171:
 1078 050a 88EE      		ldi r24,lo8(1000)
 1079 050c 93E0      		ldi r25,hi8(1000)
 1080 050e 9093 0000 		sts (timer_cnt)+1,r25
 1081 0512 8093 0000 		sts timer_cnt,r24
 1082               	.L271:
 1083               	.LM172:
 1084 0516 8091 0000 		lds r24,timer_on
 1085 051a 8823      		tst r24
 1086 051c 01F4      		brne .L271
 1087               	.LBE219:
 1088               	.LBE218:
 1089               	.LM173:
 1090 051e 0E94 0000 		call ReadX
 1091               	.LM174:
 1092 0522 8091 0000 		lds r24,X
 1093 0526 9091 0000 		lds r25,(X)+1
 1094 052a 855F      		subi r24,lo8(501)
 1095 052c 9140      		sbci r25,hi8(501)
 1096 052e 04F0      		brlt .L273
 1097               	.LM175:
 1098 0530 5D98      		cbi 43-0x20,5
 1099               	.LM176:
 1100 0532 5E9A      		sbi 43-0x20,6
 1101 0534 00C0      		rjmp .L275
 1102               	.L273:
 1103               	.LM177:
 1104 0536 8091 0000 		lds r24,X
 1105 053a 9091 0000 		lds r25,(X)+1
 1106 053e 8855      		subi r24,lo8(600)
 1107 0540 9240      		sbci r25,hi8(600)
 1108 0542 04F4      		brge .L276
 1109               	.LM178:
 1110 0544 5D9A      		sbi 43-0x20,5
 1111               	.LM179:
 1112 0546 5E98      		cbi 43-0x20,6
 1113 0548 00C0      		rjmp .L275
 1114               	.L276:
 1115               	.LM180:
 1116 054a 8BB1      		in r24,43-0x20
 1117 054c 8F79      		andi r24,lo8(-97)
 1118 054e 8BB9      		out 43-0x20,r24
 1119               	.L275:
 1120               	.LBB220:
 1121               	.LBB221:
 1122               	.LM181:
 1123 0550 81E0      		ldi r24,lo8(1)
 1124 0552 8093 0000 		sts timer_on,r24
 1125               	.LM182:
 1126 0556 88EE      		ldi r24,lo8(1000)
 1127 0558 93E0      		ldi r25,hi8(1000)
 1128 055a 9093 0000 		sts (timer_cnt)+1,r25
 1129 055e 8093 0000 		sts timer_cnt,r24
 1130               	.L278:
 1131               	.LM183:
 1132 0562 8091 0000 		lds r24,timer_on
 1133 0566 8823      		tst r24
 1134 0568 01F4      		brne .L278
 1135 056a 00C0      		rjmp .L270
 1136               	.LBE221:
 1137               	.LBE220:
 1138               	/* epilogue: frame size=0 */
 1139               	/* epilogue: noreturn */
 1140               	/* epilogue end (size=0) */
 1141               	/* function main size 62 (62) */
 1142               	.LFE2:
 1144               	.global	baud
 1146               	baud:
 1147               	.LFB11:
 1148               	.LM184:
 1149               	/* prologue: frame size=0 */
 1150               	/* prologue end (size=0) */
 1151               	.LVL11:
 1152 056c 982F      		mov r25,r24
 1153               	.LM185:
 1154 056e 8C30      		cpi r24,lo8(12)
 1155 0570 00F0      		brlo .+2
 1156 0572 00C0      		rjmp .L316
 1157               	.L317:
 1158               	.LBB228:
 1159               	.LBB229:
 1160               	.LM186:
 1161 0574 8091 C000 		lds r24,192
 1162               	.LVL12:
 1163 0578 85FF      		sbrs r24,5
 1164 057a 00C0      		rjmp .L317
 1165               	.LM187:
 1166 057c 81E8      		ldi r24,lo8(-127)
 1167 057e 8093 C600 		sts 198,r24
 1168               	.LBE229:
 1169               	.LBE228:
 1170               	.LM188:
 1171 0582 8091 C000 		lds r24,192
 1172 0586 8064      		ori r24,lo8(64)
 1173 0588 8093 C000 		sts 192,r24
 1174               	.L288:
 1175               	.LBB230:
 1176               	.LBB231:
 1177               	.LM189:
 1178 058c 8091 C000 		lds r24,192
 1179 0590 85FF      		sbrs r24,5
 1180 0592 00C0      		rjmp .L288
 1181               	.LM190:
 1182 0594 9093 C600 		sts 198,r25
 1183               	.L290:
 1184               	.LBE231:
 1185               	.LBE230:
 1186               	.LM191:
 1187 0598 8091 C000 		lds r24,192
 1188 059c 86FF      		sbrs r24,6
 1189 059e 00C0      		rjmp .L290
 1190               	.LM192:
 1191               	/* #APP */
 1192 05a0 F894      		cli
 1193               	.LM193:
 1194               	/* #NOAPP */
 1195 05a2 9B30      		cpi r25,lo8(11)
 1196 05a4 01F4      		brne .L292
 1197               	.LM194:
 1198 05a6 89E0      		ldi r24,lo8(9)
 1199 05a8 90E0      		ldi r25,hi8(9)
 1200 05aa 00C0      		rjmp .L325
 1201               	.L292:
 1202               	.LM195:
 1203 05ac 9A30      		cpi r25,lo8(10)
 1204 05ae 01F4      		brne .L295
 1205               	.LM196:
 1206 05b0 83E1      		ldi r24,lo8(19)
 1207 05b2 90E0      		ldi r25,hi8(19)
 1208 05b4 00C0      		rjmp .L325
 1209               	.L295:
 1210               	.LM197:
 1211 05b6 9930      		cpi r25,lo8(9)
 1212 05b8 01F4      		brne .L297
 1213               	.LM198:
 1214 05ba 8DE1      		ldi r24,lo8(29)
 1215 05bc 90E0      		ldi r25,hi8(29)
 1216 05be 00C0      		rjmp .L325
 1217               	.L297:
 1218               	.LM199:
 1219 05c0 9830      		cpi r25,lo8(8)
 1220 05c2 01F4      		brne .L299
 1221               	.LM200:
 1222 05c4 87E2      		ldi r24,lo8(39)
 1223 05c6 90E0      		ldi r25,hi8(39)
 1224 05c8 00C0      		rjmp .L325
 1225               	.L299:
 1226               	.LM201:
 1227 05ca 9730      		cpi r25,lo8(7)
 1228 05cc 01F4      		brne .L301
 1229               	.LM202:
 1230 05ce 8BE3      		ldi r24,lo8(59)
 1231 05d0 90E0      		ldi r25,hi8(59)
 1232 05d2 00C0      		rjmp .L325
 1233               	.L301:
 1234               	.LM203:
 1235 05d4 9630      		cpi r25,lo8(6)
 1236 05d6 01F4      		brne .L303
 1237               	.LM204:
 1238 05d8 8FE4      		ldi r24,lo8(79)
 1239 05da 90E0      		ldi r25,hi8(79)
 1240 05dc 00C0      		rjmp .L325
 1241               	.L303:
 1242               	.LM205:
 1243 05de 9530      		cpi r25,lo8(5)
 1244 05e0 01F4      		brne .L305
 1245               	.LM206:
 1246 05e2 87E7      		ldi r24,lo8(119)
 1247 05e4 90E0      		ldi r25,hi8(119)
 1248 05e6 00C0      		rjmp .L325
 1249               	.L305:
 1250               	.LM207:
 1251 05e8 9430      		cpi r25,lo8(4)
 1252 05ea 01F4      		brne .L307
 1253               	.LM208:
 1254 05ec 8FEE      		ldi r24,lo8(239)
 1255 05ee 90E0      		ldi r25,hi8(239)
 1256 05f0 00C0      		rjmp .L325
 1257               	.L307:
 1258               	.LM209:
 1259 05f2 9330      		cpi r25,lo8(3)
 1260 05f4 01F4      		brne .L309
 1261               	.LM210:
 1262 05f6 8FED      		ldi r24,lo8(479)
 1263 05f8 91E0      		ldi r25,hi8(479)
 1264 05fa 00C0      		rjmp .L325
 1265               	.L309:
 1266               	.LM211:
 1267 05fc 9230      		cpi r25,lo8(2)
 1268 05fe 01F4      		brne .L311
 1269               	.LM212:
 1270 0600 8FEB      		ldi r24,lo8(959)
 1271 0602 93E0      		ldi r25,hi8(959)
 1272 0604 00C0      		rjmp .L325
 1273               	.L311:
 1274               	.LM213:
 1275 0606 9130      		cpi r25,lo8(1)
 1276 0608 01F4      		brne .L313
 1277               	.LM214:
 1278 060a 8FE7      		ldi r24,lo8(1919)
 1279 060c 97E0      		ldi r25,hi8(1919)
 1280 060e 00C0      		rjmp .L325
 1281               	.L313:
 1282               	.LM215:
 1283 0610 8FEF      		ldi r24,lo8(3839)
 1284 0612 9EE0      		ldi r25,hi8(3839)
 1285               	.L325:
 1286 0614 9093 C500 		sts (196)+1,r25
 1287 0618 8093 C400 		sts 196,r24
 1288               	.LM216:
 1289               	/* #APP */
 1290 061c 7894      		sei
 1291               	/* #NOAPP */
 1292               	.LBB232:
 1293               	.LBB233:
 1294               	.LM217:
 1295 061e 81E0      		ldi r24,lo8(1)
 1296 0620 8093 0000 		sts timer_on,r24
 1297               	.LM218:
 1298 0624 84E6      		ldi r24,lo8(100)
 1299 0626 90E0      		ldi r25,hi8(100)
 1300 0628 9093 0000 		sts (timer_cnt)+1,r25
 1301 062c 8093 0000 		sts timer_cnt,r24
 1302               	.L315:
 1303               	.LM219:
 1304 0630 8091 0000 		lds r24,timer_on
 1305 0634 8823      		tst r24
 1306 0636 01F4      		brne .L315
 1307               	.LVL13:
 1308               	.L316:
 1309 0638 0895      		ret
 1310               	.LBE233:
 1311               	.LBE232:
 1312               	/* epilogue: frame size=0 */
 1313               	/* epilogue: noreturn */
 1314               	/* epilogue end (size=0) */
 1315               	/* function baud size 105 (105) */
 1316               	.LFE11:
 1318               	.global	powerOnRobot
 1320               	powerOnRobot:
 1321               	.LFB10:
 1322               	.LM220:
 1323               	/* prologue: frame size=0 */
 1324               	/* prologue end (size=0) */
 1325               	.LM221:
 1326 063a 1D9B      		sbis 35-0x20,5
 1327 063c 00C0      		rjmp .L342
 1328 063e 0895      		ret
 1329               	.L329:
 1330               	.LM222:
 1331 0640 5F98      		cbi 43-0x20,7
 1332               	.LBB240:
 1333               	.LBB241:
 1334               	.LM223:
 1335 0642 81E0      		ldi r24,lo8(1)
 1336 0644 8093 0000 		sts timer_on,r24
 1337               	.LM224:
 1338 0648 84EF      		ldi r24,lo8(500)
 1339 064a 91E0      		ldi r25,hi8(500)
 1340 064c 9093 0000 		sts (timer_cnt)+1,r25
 1341 0650 8093 0000 		sts timer_cnt,r24
 1342               	.L330:
 1343               	.LM225:
 1344 0654 8091 0000 		lds r24,timer_on
 1345 0658 8823      		tst r24
 1346 065a 01F4      		brne .L330
 1347               	.LBE241:
 1348               	.LBE240:
 1349               	.LM226:
 1350 065c 5F9A      		sbi 43-0x20,7
 1351               	.LBB242:
 1352               	.LBB243:
 1353               	.LM227:
 1354 065e 81E0      		ldi r24,lo8(1)
 1355 0660 8093 0000 		sts timer_on,r24
 1356               	.LM228:
 1357 0664 84E6      		ldi r24,lo8(100)
 1358 0666 90E0      		ldi r25,hi8(100)
 1359 0668 9093 0000 		sts (timer_cnt)+1,r25
 1360 066c 8093 0000 		sts timer_cnt,r24
 1361               	.L332:
 1362               	.LM229:
 1363 0670 8091 0000 		lds r24,timer_on
 1364 0674 8823      		tst r24
 1365 0676 01F4      		brne .L332
 1366               	.LBE243:
 1367               	.LBE242:
 1368               	.LM230:
 1369 0678 5F98      		cbi 43-0x20,7
 1370               	.L342:
 1371               	.LM231:
 1372 067a 1D9B      		sbis 35-0x20,5
 1373 067c 00C0      		rjmp .L329
 1374               	.LBB244:
 1375               	.LBB245:
 1376               	.LM232:
 1377 067e 81E0      		ldi r24,lo8(1)
 1378 0680 8093 0000 		sts timer_on,r24
 1379               	.LM233:
 1380 0684 8CEA      		ldi r24,lo8(3500)
 1381 0686 9DE0      		ldi r25,hi8(3500)
 1382 0688 9093 0000 		sts (timer_cnt)+1,r25
 1383 068c 8093 0000 		sts timer_cnt,r24
 1384               	.L335:
 1385               	.LM234:
 1386 0690 8091 0000 		lds r24,timer_on
 1387 0694 8823      		tst r24
 1388 0696 01F4      		brne .L335
 1389 0698 0895      		ret
 1390               	.LBE245:
 1391               	.LBE244:
 1392               	/* epilogue: frame size=0 */
 1393               	/* epilogue: noreturn */
 1394               	/* epilogue end (size=0) */
 1395               	/* function powerOnRobot size 48 (48) */
 1396               	.LFE10:
 1398               	.global	timer_cnt
 1399               	.global	timer_cnt
 1400               		.section .bss
 1403               	timer_cnt:
 1404 0000 0000      		.skip 2,0
 1405               	.global	timer_on
 1406               	.global	timer_on
 1409               	timer_on:
 1410 0002 00        		.skip 1,0
 1411               	.global	sensors_flag
 1412               	.global	sensors_flag
 1415               	sensors_flag:
 1416 0003 00        		.skip 1,0
 1417               	.global	sensors_index
 1418               	.global	sensors_index
 1421               	sensors_index:
 1422 0004 00        		.skip 1,0
 1423               	.global	distance
 1424               	.global	distance
 1427               	distance:
 1428 0005 0000      		.skip 2,0
 1429               	.global	angle
 1430               	.global	angle
 1433               	angle:
 1434 0007 0000      		.skip 2,0
 1435               	.global	X
 1436               	.global	X
 1439               	X:
 1440 0009 0000      		.skip 2,0
 1441               		.comm sensors_in,52,1
 1442               		.comm sensors,52,1
 1563               	.Letext0:
DEFINED SYMBOLS
                            *ABS*:00000000 drive.c
C:\Users\Trung\AppData\Local\Temp/ccxSbGvT.s:2      *ABS*:0000003f __SREG__
C:\Users\Trung\AppData\Local\Temp/ccxSbGvT.s:3      *ABS*:0000003e __SP_H__
C:\Users\Trung\AppData\Local\Temp/ccxSbGvT.s:4      *ABS*:0000003d __SP_L__
C:\Users\Trung\AppData\Local\Temp/ccxSbGvT.s:5      *ABS*:00000000 __tmp_reg__
C:\Users\Trung\AppData\Local\Temp/ccxSbGvT.s:6      *ABS*:00000001 __zero_reg__
C:\Users\Trung\AppData\Local\Temp/ccxSbGvT.s:19     .text:00000000 __vector_18
C:\Users\Trung\AppData\Local\Temp/ccxSbGvT.s:1415   .bss:00000003 sensors_flag
C:\Users\Trung\AppData\Local\Temp/ccxSbGvT.s:1421   .bss:00000004 sensors_index
                            *COM*:00000034 sensors_in
C:\Users\Trung\AppData\Local\Temp/ccxSbGvT.s:72     .text:00000050 __vector_11
C:\Users\Trung\AppData\Local\Temp/ccxSbGvT.s:1403   .bss:00000000 timer_cnt
C:\Users\Trung\AppData\Local\Temp/ccxSbGvT.s:1409   .bss:00000002 timer_on
C:\Users\Trung\AppData\Local\Temp/ccxSbGvT.s:114    .text:00000090 byteTx
C:\Users\Trung\AppData\Local\Temp/ccxSbGvT.s:137    .text:000000a0 delayMs
C:\Users\Trung\AppData\Local\Temp/ccxSbGvT.s:163    .text:000000b8 ReadX
C:\Users\Trung\AppData\Local\Temp/ccxSbGvT.s:1439   .bss:00000009 X
C:\Users\Trung\AppData\Local\Temp/ccxSbGvT.s:195    .text:000000e4 initialize
C:\Users\Trung\AppData\Local\Temp/ccxSbGvT.s:275    .text:00000152 randomAngle
C:\Users\Trung\AppData\Local\Temp/ccxSbGvT.s:297    .text:00000164 defineSongs
C:\Users\Trung\AppData\Local\Temp/ccxSbGvT.s:861    .text:000003e8 drive
C:\Users\Trung\AppData\Local\Temp/ccxSbGvT.s:943    .text:0000043a delayAndUpdateSensors
                            *COM*:00000034 sensors
C:\Users\Trung\AppData\Local\Temp/ccxSbGvT.s:1427   .bss:00000005 distance
C:\Users\Trung\AppData\Local\Temp/ccxSbGvT.s:1433   .bss:00000007 angle
C:\Users\Trung\AppData\Local\Temp/ccxSbGvT.s:1056   .text:000004f4 main
C:\Users\Trung\AppData\Local\Temp/ccxSbGvT.s:1146   .text:0000056c baud
C:\Users\Trung\AppData\Local\Temp/ccxSbGvT.s:1320   .text:0000063a powerOnRobot

UNDEFINED SYMBOLS
__do_copy_data
__do_clear_bss
random
