   1               		.file	"drive.c"
   2               		.arch atmega168
   3               	__SREG__ = 0x3f
   4               	__SP_H__ = 0x3e
   5               	__SP_L__ = 0x3d
   6               	__tmp_reg__ = 0
   7               	__zero_reg__ = 1
   8               		.global __do_copy_data
   9               		.global __do_clear_bss
  17               	.Ltext0:
  18               	.global	angle
  19               	.global	angle
  20               		.section .bss
  23               	angle:
  24 0000 0000      		.skip 2,0
  25               	.global	distance
  26               	.global	distance
  29               	distance:
  30 0002 0000      		.skip 2,0
  31               	.global	sensors_index
  32               	.global	sensors_index
  35               	sensors_index:
  36 0004 00        		.skip 1,0
  37               	.global	sensors_flag
  38               	.global	sensors_flag
  41               	sensors_flag:
  42 0005 00        		.skip 1,0
  43               	.global	timer_on
  44               	.global	timer_on
  47               	timer_on:
  48 0006 00        		.skip 1,0
  49               	.global	timer_cnt
  50               	.global	timer_cnt
  53               	timer_cnt:
  54 0007 0000      		.skip 2,0
  55               		.text
  56               	.global	initialize
  58               	initialize:
  59               	.LFB10:
  60               	.LM1:
  61               	/* prologue: frame size=0 */
  62               	/* prologue end (size=0) */
  63               	.LM2:
  64               	/* #APP */
  65 0000 F894      		cli
  66               	.LM3:
  67               	/* #NOAPP */
  68 0002 80E1      		ldi r24,lo8(16)
  69 0004 84B9      		out 36-0x20,r24
  70               	.LM4:
  71 0006 8FEC      		ldi r24,lo8(-49)
  72 0008 85B9      		out 37-0x20,r24
  73               	.LM5:
  74 000a 17B8      		out 39-0x20,__zero_reg__
  75               	.LM6:
  76 000c 8FEF      		ldi r24,lo8(-1)
  77 000e 88B9      		out 40-0x20,r24
  78               	.LM7:
  79 0010 86EE      		ldi r24,lo8(-26)
  80 0012 8AB9      		out 42-0x20,r24
  81               	.LM8:
  82 0014 8DE7      		ldi r24,lo8(125)
  83 0016 8BB9      		out 43-0x20,r24
  84               	.LM9:
  85 0018 1092 8000 		sts 128,__zero_reg__
  86               	.LM10:
  87 001c 8CE0      		ldi r24,lo8(12)
  88 001e 8093 8100 		sts 129,r24
  89               	.LM11:
  90 0022 87E4      		ldi r24,lo8(71)
  91 0024 90E0      		ldi r25,hi8(71)
  92 0026 9093 8900 		sts (136)+1,r25
  93 002a 8093 8800 		sts 136,r24
  94               	.LM12:
  95 002e 82E0      		ldi r24,lo8(2)
  96 0030 8093 6F00 		sts 111,r24
  97               	.LM13:
  98 0034 83E1      		ldi r24,lo8(19)
  99 0036 90E0      		ldi r25,hi8(19)
 100 0038 9093 C500 		sts (196)+1,r25
 101 003c 8093 C400 		sts 196,r24
 102               	.LM14:
 103 0040 88E9      		ldi r24,lo8(-104)
 104 0042 8093 C100 		sts 193,r24
 105               	.LM15:
 106 0046 86E0      		ldi r24,lo8(6)
 107 0048 8093 C200 		sts 194,r24
 108               	.LM16:
 109               	/* #APP */
 110 004c 7894      		sei
 111               	/* #NOAPP */
 112               	/* epilogue: frame size=0 */
 113 004e 0895      		ret
 114               	/* epilogue end (size=1) */
 115               	/* function initialize size 42 (41) */
 116               	.LFE10:
 118               	.global	byteTx
 120               	byteTx:
 121               	.LFB7:
 122               	.LM17:
 123               	/* prologue: frame size=0 */
 124               	/* prologue end (size=0) */
 125 0050 982F      		mov r25,r24
 126               	.L3:
 127               	.LM18:
 128 0052 8091 C000 		lds r24,192
 129 0056 85FF      		sbrs r24,5
 130 0058 FCCF      		rjmp .L3
 131               	.LM19:
 132 005a 9093 C600 		sts 198,r25
 133               	/* epilogue: frame size=0 */
 134 005e 0895      		ret
 135               	/* epilogue end (size=1) */
 136               	/* function byteTx size 8 (7) */
 137               	.LFE7:
 139               	.global	defineSongs
 141               	defineSongs:
 142               	.LFB15:
 143               	.LM20:
 144               	/* prologue: frame size=0 */
 145               	/* prologue end (size=0) */
 146               	.LM21:
 147 0060 8CE8      		ldi r24,lo8(-116)
 148 0062 0E94 0000 		call byteTx
 149               	.LM22:
 150 0066 80E0      		ldi r24,lo8(0)
 151 0068 0E94 0000 		call byteTx
 152               	.LM23:
 153 006c 84E0      		ldi r24,lo8(4)
 154 006e 0E94 0000 		call byteTx
 155               	.LM24:
 156 0072 8CE3      		ldi r24,lo8(60)
 157 0074 0E94 0000 		call byteTx
 158               	.LM25:
 159 0078 86E0      		ldi r24,lo8(6)
 160 007a 0E94 0000 		call byteTx
 161               	.LM26:
 162 007e 88E4      		ldi r24,lo8(72)
 163 0080 0E94 0000 		call byteTx
 164               	.LM27:
 165 0084 86E0      		ldi r24,lo8(6)
 166 0086 0E94 0000 		call byteTx
 167               	.LM28:
 168 008a 84E5      		ldi r24,lo8(84)
 169 008c 0E94 0000 		call byteTx
 170               	.LM29:
 171 0090 86E0      		ldi r24,lo8(6)
 172 0092 0E94 0000 		call byteTx
 173               	.LM30:
 174 0096 80E6      		ldi r24,lo8(96)
 175 0098 0E94 0000 		call byteTx
 176               	.LM31:
 177 009c 86E0      		ldi r24,lo8(6)
 178 009e 0E94 0000 		call byteTx
 179               	.LM32:
 180 00a2 8CE8      		ldi r24,lo8(-116)
 181 00a4 0E94 0000 		call byteTx
 182               	.LM33:
 183 00a8 81E0      		ldi r24,lo8(1)
 184 00aa 0E94 0000 		call byteTx
 185               	.LM34:
 186 00ae 86E0      		ldi r24,lo8(6)
 187 00b0 0E94 0000 		call byteTx
 188               	.LM35:
 189 00b4 85E4      		ldi r24,lo8(69)
 190 00b6 0E94 0000 		call byteTx
 191               	.LM36:
 192 00ba 82E1      		ldi r24,lo8(18)
 193 00bc 0E94 0000 		call byteTx
 194               	.LM37:
 195 00c0 88E4      		ldi r24,lo8(72)
 196 00c2 0E94 0000 		call byteTx
 197               	.LM38:
 198 00c6 8CE0      		ldi r24,lo8(12)
 199 00c8 0E94 0000 		call byteTx
 200               	.LM39:
 201 00cc 8AE4      		ldi r24,lo8(74)
 202 00ce 0E94 0000 		call byteTx
 203               	.LM40:
 204 00d2 8CE0      		ldi r24,lo8(12)
 205 00d4 0E94 0000 		call byteTx
 206               	.LM41:
 207 00d8 88E4      		ldi r24,lo8(72)
 208 00da 0E94 0000 		call byteTx
 209               	.LM42:
 210 00de 8CE0      		ldi r24,lo8(12)
 211 00e0 0E94 0000 		call byteTx
 212               	.LM43:
 213 00e4 85E4      		ldi r24,lo8(69)
 214 00e6 0E94 0000 		call byteTx
 215               	.LM44:
 216 00ea 8CE0      		ldi r24,lo8(12)
 217 00ec 0E94 0000 		call byteTx
 218               	.LM45:
 219 00f0 8DE4      		ldi r24,lo8(77)
 220 00f2 0E94 0000 		call byteTx
 221               	.LM46:
 222 00f6 88E1      		ldi r24,lo8(24)
 223 00f8 0E94 0000 		call byteTx
 224               	.LM47:
 225 00fc 8CE8      		ldi r24,lo8(-116)
 226 00fe 0E94 0000 		call byteTx
 227               	.LM48:
 228 0102 82E0      		ldi r24,lo8(2)
 229 0104 0E94 0000 		call byteTx
 230               	.LM49:
 231 0108 82E0      		ldi r24,lo8(2)
 232 010a 0E94 0000 		call byteTx
 233               	.LM50:
 234 010e 8AE4      		ldi r24,lo8(74)
 235 0110 0E94 0000 		call byteTx
 236               	.LM51:
 237 0114 8CE0      		ldi r24,lo8(12)
 238 0116 0E94 0000 		call byteTx
 239               	.LM52:
 240 011a 8BE3      		ldi r24,lo8(59)
 241 011c 0E94 0000 		call byteTx
 242               	.LM53:
 243 0120 88E1      		ldi r24,lo8(24)
 244 0122 0E94 0000 		call byteTx
 245               	.LM54:
 246 0126 8CE8      		ldi r24,lo8(-116)
 247 0128 0E94 0000 		call byteTx
 248               	.LM55:
 249 012c 83E0      		ldi r24,lo8(3)
 250 012e 0E94 0000 		call byteTx
 251               	.LM56:
 252 0132 85E0      		ldi r24,lo8(5)
 253 0134 0E94 0000 		call byteTx
 254               	.LM57:
 255 0138 8DE4      		ldi r24,lo8(77)
 256 013a 0E94 0000 		call byteTx
 257               	.LM58:
 258 013e 82E1      		ldi r24,lo8(18)
 259 0140 0E94 0000 		call byteTx
 260               	.LM59:
 261 0144 8AE4      		ldi r24,lo8(74)
 262 0146 0E94 0000 		call byteTx
 263               	.LM60:
 264 014a 8CE0      		ldi r24,lo8(12)
 265 014c 0E94 0000 		call byteTx
 266               	.LM61:
 267 0150 88E4      		ldi r24,lo8(72)
 268 0152 0E94 0000 		call byteTx
 269               	.LM62:
 270 0156 8CE0      		ldi r24,lo8(12)
 271 0158 0E94 0000 		call byteTx
 272               	.LM63:
 273 015c 85E4      		ldi r24,lo8(69)
 274 015e 0E94 0000 		call byteTx
 275               	.LM64:
 276 0162 8CE0      		ldi r24,lo8(12)
 277 0164 0E94 0000 		call byteTx
 278               	.LM65:
 279 0168 81E4      		ldi r24,lo8(65)
 280 016a 0E94 0000 		call byteTx
 281               	.LM66:
 282 016e 88E1      		ldi r24,lo8(24)
 283 0170 0E94 0000 		call byteTx
 284               	/* epilogue: frame size=0 */
 285 0174 0895      		ret
 286               	/* epilogue end (size=1) */
 287               	/* function defineSongs size 139 (138) */
 288               	.LFE15:
 290               	.global	drive
 292               	drive:
 293               	.LFB13:
 294               	.LM67:
 295               	/* prologue: frame size=0 */
 296 0176 EF92      		push r14
 297 0178 FF92      		push r15
 298 017a 0F93      		push r16
 299 017c 1F93      		push r17
 300               	/* prologue end (size=4) */
 301 017e 8C01      		movw r16,r24
 302 0180 7B01      		movw r14,r22
 303               	.LM68:
 304 0182 89E8      		ldi r24,lo8(-119)
 305 0184 0E94 0000 		call byteTx
 306               	.LM69:
 307 0188 812F      		mov r24,r17
 308 018a 9927      		clr r25
 309 018c 87FD      		sbrc r24,7
 310 018e 9A95      		dec r25
 311 0190 0E94 0000 		call byteTx
 312               	.LM70:
 313 0194 802F      		mov r24,r16
 314 0196 0E94 0000 		call byteTx
 315               	.LM71:
 316 019a 8F2D      		mov r24,r15
 317 019c 9927      		clr r25
 318 019e 87FD      		sbrc r24,7
 319 01a0 9A95      		dec r25
 320 01a2 0E94 0000 		call byteTx
 321               	.LM72:
 322 01a6 8E2D      		mov r24,r14
 323 01a8 0E94 0000 		call byteTx
 324               	/* epilogue: frame size=0 */
 325 01ac 1F91      		pop r17
 326 01ae 0F91      		pop r16
 327 01b0 FF90      		pop r15
 328 01b2 EF90      		pop r14
 329 01b4 0895      		ret
 330               	/* epilogue end (size=5) */
 331               	/* function drive size 32 (23) */
 332               	.LFE13:
 334               	.global	delayAndUpdateSensors
 336               	delayAndUpdateSensors:
 337               	.LFB9:
 338               	.LM73:
 339               	/* prologue: frame size=0 */
 340               	/* prologue end (size=0) */
 341               	.LM74:
 342 01b6 21E0      		ldi r18,lo8(1)
 343 01b8 2093 0000 		sts timer_on,r18
 344               	.LM75:
 345 01bc 9093 0000 		sts (timer_cnt)+1,r25
 346 01c0 8093 0000 		sts timer_cnt,r24
 347               	.L22:
 348               	.LM76:
 349 01c4 8091 0000 		lds r24,timer_on
 350 01c8 8823      		tst r24
 351 01ca 09F4      		brne .+2
 352 01cc 42C0      		rjmp .L18
 353               	.LM77:
 354 01ce 8091 0000 		lds r24,sensors_flag
 355 01d2 8823      		tst r24
 356 01d4 B9F7      		brne .L22
 357 01d6 A0E0      		ldi r26,lo8(sensors_in)
 358 01d8 B0E0      		ldi r27,hi8(sensors_in)
 359 01da E0E0      		ldi r30,lo8(sensors)
 360 01dc F0E0      		ldi r31,hi8(sensors)
 361 01de 93E3      		ldi r25,lo8(51)
 362               	.L15:
 363               	.LM78:
 364 01e0 8D91      		ld r24,X+
 365 01e2 8193      		st Z+,r24
 366               	.LM79:
 367 01e4 9150      		subi r25,lo8(-(-1))
 368 01e6 97FF      		sbrs r25,7
 369 01e8 FBCF      		rjmp .L15
 370               	.LM80:
 371 01ea 8091 0000 		lds r24,sensors+12
 372 01ee 9927      		clr r25
 373 01f0 382F      		mov r19,r24
 374 01f2 2227      		clr r18
 375 01f4 8091 0000 		lds r24,sensors+13
 376 01f8 9927      		clr r25
 377 01fa 282B      		or r18,r24
 378 01fc 392B      		or r19,r25
 379 01fe 8091 0000 		lds r24,distance
 380 0202 9091 0000 		lds r25,(distance)+1
 381 0206 820F      		add r24,r18
 382 0208 931F      		adc r25,r19
 383 020a 9093 0000 		sts (distance)+1,r25
 384 020e 8093 0000 		sts distance,r24
 385               	.LM81:
 386 0212 8091 0000 		lds r24,sensors+14
 387 0216 9927      		clr r25
 388 0218 382F      		mov r19,r24
 389 021a 2227      		clr r18
 390 021c 8091 0000 		lds r24,sensors+15
 391 0220 9927      		clr r25
 392 0222 282B      		or r18,r24
 393 0224 392B      		or r19,r25
 394 0226 8091 0000 		lds r24,angle
 395 022a 9091 0000 		lds r25,(angle)+1
 396 022e 820F      		add r24,r18
 397 0230 931F      		adc r25,r19
 398 0232 9093 0000 		sts (angle)+1,r25
 399 0236 8093 0000 		sts angle,r24
 400               	.LM82:
 401 023a 8EE8      		ldi r24,lo8(-114)
 402 023c 0E94 0000 		call byteTx
 403               	.LM83:
 404 0240 86E0      		ldi r24,lo8(6)
 405 0242 0E94 0000 		call byteTx
 406               	.LM84:
 407 0246 1092 0000 		sts sensors_index,__zero_reg__
 408               	.LM85:
 409 024a 81E0      		ldi r24,lo8(1)
 410 024c 8093 0000 		sts sensors_flag,r24
 411 0250 B9CF      		rjmp .L22
 412               	.L18:
 413 0252 0895      		ret
 414               	/* epilogue: frame size=0 */
 415               	/* epilogue: noreturn */
 416               	/* epilogue end (size=0) */
 417               	/* function delayAndUpdateSensors size 79 (79) */
 418               	.LFE9:
 420               	.global	__vector_18
 422               	__vector_18:
 423               	.LFB5:
 424               	.LM86:
 425               	/* prologue: frame size=0 */
 426 0254 1F92      		push __zero_reg__
 427 0256 0F92      		push __tmp_reg__
 428 0258 0FB6      		in __tmp_reg__,__SREG__
 429 025a 0F92      		push __tmp_reg__
 430 025c 1124      		clr __zero_reg__
 431 025e 8F93      		push r24
 432 0260 9F93      		push r25
 433 0262 EF93      		push r30
 434 0264 FF93      		push r31
 435               	/* prologue end (size=9) */
 436               	.LM87:
 437               	/* #APP */
 438 0266 7894      		sei
 439               	.LM88:
 440               	/* #NOAPP */
 441 0268 9091 C600 		lds r25,198
 442               	.LM89:
 443 026c 8091 0000 		lds r24,sensors_flag
 444 0270 8823      		tst r24
 445 0272 81F0      		breq .L23
 446               	.LM90:
 447 0274 8091 0000 		lds r24,sensors_index
 448 0278 E82F      		mov r30,r24
 449 027a FF27      		clr r31
 450 027c E050      		subi r30,lo8(-(sensors_in))
 451 027e F040      		sbci r31,hi8(-(sensors_in))
 452 0280 9083      		st Z,r25
 453 0282 8F5F      		subi r24,lo8(-(1))
 454 0284 8093 0000 		sts sensors_index,r24
 455               	.LM91:
 456 0288 8091 0000 		lds r24,sensors_index
 457 028c 8433      		cpi r24,lo8(52)
 458 028e 10F0      		brlo .L23
 459               	.LM92:
 460 0290 1092 0000 		sts sensors_flag,__zero_reg__
 461               	.L23:
 462               	/* epilogue: frame size=0 */
 463 0294 FF91      		pop r31
 464 0296 EF91      		pop r30
 465 0298 9F91      		pop r25
 466 029a 8F91      		pop r24
 467 029c 0F90      		pop __tmp_reg__
 468 029e 0FBE      		out __SREG__,__tmp_reg__
 469 02a0 0F90      		pop __tmp_reg__
 470 02a2 1F90      		pop __zero_reg__
 471 02a4 1895      		reti
 472               	/* epilogue end (size=9) */
 473               	/* function __vector_18 size 42 (24) */
 474               	.LFE5:
 476               	.global	__vector_11
 478               	__vector_11:
 479               	.LFB6:
 480               	.LM93:
 481               	/* prologue: frame size=0 */
 482 02a6 1F92      		push __zero_reg__
 483 02a8 0F92      		push __tmp_reg__
 484 02aa 0FB6      		in __tmp_reg__,__SREG__
 485 02ac 0F92      		push __tmp_reg__
 486 02ae 1124      		clr __zero_reg__
 487 02b0 8F93      		push r24
 488 02b2 9F93      		push r25
 489               	/* prologue end (size=7) */
 490               	.LM94:
 491               	/* #APP */
 492 02b4 7894      		sei
 493               	.LM95:
 494               	/* #NOAPP */
 495 02b6 8091 0000 		lds r24,timer_cnt
 496 02ba 9091 0000 		lds r25,(timer_cnt)+1
 497 02be 892B      		or r24,r25
 498 02c0 51F0      		breq .L27
 499               	.LM96:
 500 02c2 8091 0000 		lds r24,timer_cnt
 501 02c6 9091 0000 		lds r25,(timer_cnt)+1
 502 02ca 0197      		sbiw r24,1
 503 02cc 9093 0000 		sts (timer_cnt)+1,r25
 504 02d0 8093 0000 		sts timer_cnt,r24
 505 02d4 02C0      		rjmp .L26
 506               	.L27:
 507               	.LM97:
 508 02d6 1092 0000 		sts timer_on,__zero_reg__
 509               	.L26:
 510               	/* epilogue: frame size=0 */
 511 02da 9F91      		pop r25
 512 02dc 8F91      		pop r24
 513 02de 0F90      		pop __tmp_reg__
 514 02e0 0FBE      		out __SREG__,__tmp_reg__
 515 02e2 0F90      		pop __tmp_reg__
 516 02e4 1F90      		pop __zero_reg__
 517 02e6 1895      		reti
 518               	/* epilogue end (size=7) */
 519               	/* function __vector_11 size 34 (20) */
 520               	.LFE6:
 522               	.global	delayMs
 524               	delayMs:
 525               	.LFB8:
 526               	.LM98:
 527               	/* prologue: frame size=0 */
 528               	/* prologue end (size=0) */
 529 02e8 9C01      		movw r18,r24
 530               	.LM99:
 531 02ea 81E0      		ldi r24,lo8(1)
 532 02ec 8093 0000 		sts timer_on,r24
 533               	.LM100:
 534 02f0 3093 0000 		sts (timer_cnt)+1,r19
 535 02f4 2093 0000 		sts timer_cnt,r18
 536               	.L30:
 537               	.LM101:
 538 02f8 8091 0000 		lds r24,timer_on
 539 02fc 8823      		tst r24
 540 02fe E1F7      		brne .L30
 541               	/* epilogue: frame size=0 */
 542 0300 0895      		ret
 543               	/* epilogue end (size=1) */
 544               	/* function delayMs size 13 (12) */
 545               	.LFE8:
 547               	.global	baud
 549               	baud:
 550               	.LFB12:
 551               	.LM102:
 552               	/* prologue: frame size=0 */
 553 0302 CF93      		push r28
 554               	/* prologue end (size=1) */
 555 0304 C82F      		mov r28,r24
 556               	.LM103:
 557 0306 8C30      		cpi r24,lo8(12)
 558 0308 08F0      		brlo .+2
 559 030a 54C0      		rjmp .L33
 560               	.LM104:
 561 030c 81E8      		ldi r24,lo8(-127)
 562 030e 0E94 0000 		call byteTx
 563               	.LM105:
 564 0312 8091 C000 		lds r24,192
 565 0316 8064      		ori r24,lo8(64)
 566 0318 8093 C000 		sts 192,r24
 567               	.LM106:
 568 031c 8C2F      		mov r24,r28
 569 031e 0E94 0000 		call byteTx
 570               	.L35:
 571               	.LM107:
 572 0322 8091 C000 		lds r24,192
 573 0326 86FF      		sbrs r24,6
 574 0328 FCCF      		rjmp .L35
 575               	.LM108:
 576               	/* #APP */
 577 032a F894      		cli
 578               	.LM109:
 579               	/* #NOAPP */
 580 032c CB30      		cpi r28,lo8(11)
 581 032e 19F4      		brne .L38
 582               	.LM110:
 583 0330 89E0      		ldi r24,lo8(9)
 584 0332 90E0      		ldi r25,hi8(9)
 585 0334 36C0      		rjmp .L61
 586               	.L38:
 587               	.LM111:
 588 0336 CA30      		cpi r28,lo8(10)
 589 0338 19F4      		brne .L40
 590               	.LM112:
 591 033a 83E1      		ldi r24,lo8(19)
 592 033c 90E0      		ldi r25,hi8(19)
 593 033e 31C0      		rjmp .L61
 594               	.L40:
 595               	.LM113:
 596 0340 C930      		cpi r28,lo8(9)
 597 0342 19F4      		brne .L42
 598               	.LM114:
 599 0344 8DE1      		ldi r24,lo8(29)
 600 0346 90E0      		ldi r25,hi8(29)
 601 0348 2CC0      		rjmp .L61
 602               	.L42:
 603               	.LM115:
 604 034a C830      		cpi r28,lo8(8)
 605 034c 19F4      		brne .L44
 606               	.LM116:
 607 034e 87E2      		ldi r24,lo8(39)
 608 0350 90E0      		ldi r25,hi8(39)
 609 0352 27C0      		rjmp .L61
 610               	.L44:
 611               	.LM117:
 612 0354 C730      		cpi r28,lo8(7)
 613 0356 19F4      		brne .L46
 614               	.LM118:
 615 0358 8BE3      		ldi r24,lo8(59)
 616 035a 90E0      		ldi r25,hi8(59)
 617 035c 22C0      		rjmp .L61
 618               	.L46:
 619               	.LM119:
 620 035e C630      		cpi r28,lo8(6)
 621 0360 19F4      		brne .L48
 622               	.LM120:
 623 0362 8FE4      		ldi r24,lo8(79)
 624 0364 90E0      		ldi r25,hi8(79)
 625 0366 1DC0      		rjmp .L61
 626               	.L48:
 627               	.LM121:
 628 0368 C530      		cpi r28,lo8(5)
 629 036a 19F4      		brne .L50
 630               	.LM122:
 631 036c 87E7      		ldi r24,lo8(119)
 632 036e 90E0      		ldi r25,hi8(119)
 633 0370 18C0      		rjmp .L61
 634               	.L50:
 635               	.LM123:
 636 0372 C430      		cpi r28,lo8(4)
 637 0374 19F4      		brne .L52
 638               	.LM124:
 639 0376 8FEE      		ldi r24,lo8(239)
 640 0378 90E0      		ldi r25,hi8(239)
 641 037a 13C0      		rjmp .L61
 642               	.L52:
 643               	.LM125:
 644 037c C330      		cpi r28,lo8(3)
 645 037e 19F4      		brne .L54
 646               	.LM126:
 647 0380 8FED      		ldi r24,lo8(479)
 648 0382 91E0      		ldi r25,hi8(479)
 649 0384 0EC0      		rjmp .L61
 650               	.L54:
 651               	.LM127:
 652 0386 C230      		cpi r28,lo8(2)
 653 0388 19F4      		brne .L56
 654               	.LM128:
 655 038a 8FEB      		ldi r24,lo8(959)
 656 038c 93E0      		ldi r25,hi8(959)
 657 038e 09C0      		rjmp .L61
 658               	.L56:
 659               	.LM129:
 660 0390 C130      		cpi r28,lo8(1)
 661 0392 19F4      		brne .L58
 662               	.LM130:
 663 0394 8FE7      		ldi r24,lo8(1919)
 664 0396 97E0      		ldi r25,hi8(1919)
 665 0398 04C0      		rjmp .L61
 666               	.L58:
 667               	.LM131:
 668 039a CC23      		tst r28
 669 039c 31F4      		brne .L39
 670               	.LM132:
 671 039e 8FEF      		ldi r24,lo8(3839)
 672 03a0 9EE0      		ldi r25,hi8(3839)
 673               	.L61:
 674 03a2 9093 C500 		sts (196)+1,r25
 675 03a6 8093 C400 		sts 196,r24
 676               	.L39:
 677               	.LM133:
 678               	/* #APP */
 679 03aa 7894      		sei
 680               	.LM134:
 681               	/* #NOAPP */
 682 03ac 84E6      		ldi r24,lo8(100)
 683 03ae 90E0      		ldi r25,hi8(100)
 684 03b0 0E94 0000 		call delayMs
 685               	.L33:
 686               	/* epilogue: frame size=0 */
 687 03b4 CF91      		pop r28
 688 03b6 0895      		ret
 689               	/* epilogue end (size=2) */
 690               	/* function baud size 93 (90) */
 691               	.LFE12:
 693               	.global	powerOnRobot
 695               	powerOnRobot:
 696               	.LFB11:
 697               	.LM135:
 698               	/* prologue: frame size=0 */
 699               	/* prologue end (size=0) */
 700               	.LM136:
 701 03b8 1D99      		sbic 35-0x20,5
 702 03ba 13C0      		rjmp .L62
 703               	.LM137:
 704 03bc 1D99      		sbic 35-0x20,5
 705 03be 0DC0      		rjmp .L68
 706               	.L66:
 707               	.LM138:
 708 03c0 5F98      		cbi 43-0x20,7
 709               	.LM139:
 710 03c2 84EF      		ldi r24,lo8(500)
 711 03c4 91E0      		ldi r25,hi8(500)
 712 03c6 0E94 0000 		call delayMs
 713               	.LM140:
 714 03ca 5F9A      		sbi 43-0x20,7
 715               	.LM141:
 716 03cc 84E6      		ldi r24,lo8(100)
 717 03ce 90E0      		ldi r25,hi8(100)
 718 03d0 0E94 0000 		call delayMs
 719               	.LM142:
 720 03d4 5F98      		cbi 43-0x20,7
 721 03d6 1D9B      		sbis 35-0x20,5
 722 03d8 F3CF      		rjmp .L66
 723               	.L68:
 724               	.LM143:
 725 03da 8CEA      		ldi r24,lo8(3500)
 726 03dc 9DE0      		ldi r25,hi8(3500)
 727 03de 0E94 0000 		call delayMs
 728               	.L62:
 729 03e2 0895      		ret
 730               	/* epilogue: frame size=0 */
 731               	/* epilogue: noreturn */
 732               	/* epilogue end (size=0) */
 733               	/* function powerOnRobot size 22 (22) */
 734               	.LFE11:
 736               		.data
 737               	.LC0:
 738 0000 2564 2025 		.string	"%d %d \n"
 738      6420 0A00 
 739               	.LC1:
 740 0008 4275 7474 		.string	"Button Press! \n"
 740      6F6E 2050 
 740      7265 7373 
 740      2120 0A00 
 741               		.text
 742               	.global	main
 744               	main:
 745               	.LFB4:
 746               	.LM144:
 747               	/* prologue: frame size=38 */
 748 03e4 C0E0      		ldi r28,lo8(__stack - 38)
 749 03e6 D0E0      		ldi r29,hi8(__stack - 38)
 750 03e8 DEBF      		out __SP_H__,r29
 751 03ea CDBF      		out __SP_L__,r28
 752               	/* prologue end (size=4) */
 753               	.LM145:
 754 03ec 33E6      		ldi r19,lo8(99)
 755 03ee 632E      		mov r6,r19
 756               	.LM146:
 757 03f0 EE24      		clr r14
 758               	.LM147:
 759 03f2 81E0      		ldi r24,lo8(1)
 760 03f4 8DA3      		std Y+37,r24
 761               	.LM148:
 762 03f6 CC24      		clr r12
 763 03f8 DD24      		clr r13
 764               	.LM149:
 765 03fa 982E      		mov r9,r24
 766               	.LM150:
 767 03fc 3E2C      		mov r3,r14
 768               	.LM151:
 769 03fe EEA2      		std Y+38,r14
 770               	.LM152:
 771 0400 282E      		mov r2,r24
 772               	.LM153:
 773 0402 5E2C      		mov r5,r14
 774               	.LM154:
 775 0404 7E2C      		mov r7,r14
 776               	.LM155:
 777 0406 4E2C      		mov r4,r14
 778               	.LM156:
 779 0408 8E2C      		mov r8,r14
 780               	.LM157:
 781 040a FE2C      		mov r15,r14
 782               	.LM158:
 783 040c 0E94 0000 		call initialize
 784               	.LM159:
 785 0410 63E1      		ldi r22,lo8(19)
 786 0412 892D      		mov r24,r9
 787 0414 0E94 0000 		call init_aux_UART
 788               	.LM160:
 789 0418 8BB1      		in r24,43-0x20
 790 041a 8066      		ori r24,lo8(96)
 791 041c 8BB9      		out 43-0x20,r24
 792               	.LM161:
 793 041e 0E94 0000 		call powerOnRobot
 794               	.LM162:
 795 0422 80E8      		ldi r24,lo8(-128)
 796 0424 0E94 0000 		call byteTx
 797               	.LM163:
 798 0428 88E0      		ldi r24,lo8(8)
 799 042a 0E94 0000 		call baud
 800               	.LM164:
 801 042e 0E94 0000 		call defineSongs
 802               	.LM165:
 803 0432 82E8      		ldi r24,lo8(-126)
 804 0434 0E94 0000 		call byteTx
 805               	.LM166:
 806 0438 84E8      		ldi r24,lo8(-124)
 807 043a 0E94 0000 		call byteTx
 808               	.LM167:
 809 043e 60E0      		ldi r22,lo8(-32768)
 810 0440 70E8      		ldi r23,hi8(-32768)
 811 0442 C601      		movw r24,r12
 812 0444 0E94 0000 		call drive
 813               	.LM168:
 814 0448 8DE8      		ldi r24,lo8(-115)
 815 044a 0E94 0000 		call byteTx
 816               	.LM169:
 817 044e 8E2D      		mov r24,r14
 818 0450 0E94 0000 		call byteTx
 819               	.LM170:
 820 0454 8EEE      		ldi r24,lo8(750)
 821 0456 92E0      		ldi r25,hi8(750)
 822               	.L201:
 823               	.LM171:
 824 0458 0E94 0000 		call delayAndUpdateSensors
 825               	.L200:
 826               	.LBB2:
 827               	.LM172:
 828 045c 0E94 0000 		call aux_rcv_disable
 829               	.LM173:
 830 0460 8091 0000 		lds r24,sensors
 831 0464 9927      		clr r25
 832 0466 9F93      		push r25
 833 0468 8F93      		push r24
 834 046a 8091 0000 		lds r24,sensors+39
 835 046e 9927      		clr r25
 836 0470 9F93      		push r25
 837 0472 8F93      		push r24
 838 0474 20E0      		ldi r18,lo8(.LC0)
 839 0476 A22E      		mov r10,r18
 840 0478 20E0      		ldi r18,hi8(.LC0)
 841 047a B22E      		mov r11,r18
 842 047c BF92      		push r11
 843 047e AF92      		push r10
 844 0480 8E01      		movw r16,r28
 845 0482 0B5F      		subi r16,lo8(-(5))
 846 0484 1F4F      		sbci r17,hi8(-(5))
 847 0486 1F93      		push r17
 848 0488 0F93      		push r16
 849 048a 0E94 0000 		call sprintf
 850               	.LM174:
 851 048e C801      		movw r24,r16
 852 0490 0E94 0000 		call aux_send_line
 853               	.LM175:
 854 0494 80EA      		ldi r24,lo8(100000)
 855 0496 96E8      		ldi r25,hi8(100000)
 856 0498 A1E0      		ldi r26,hlo8(100000)
 857 049a B0E0      		ldi r27,hhi8(100000)
 858 049c 8983      		std Y+1,r24
 859 049e 9A83      		std Y+2,r25
 860 04a0 AB83      		std Y+3,r26
 861 04a2 BC83      		std Y+4,r27
 862               	.LM176:
 863 04a4 ADB7      		in r26,__SP_L__
 864 04a6 BEB7      		in r27,__SP_H__
 865 04a8 1896      		adiw r26,8
 866 04aa 0FB6      		in __tmp_reg__,__SREG__
 867 04ac F894      		cli
 868 04ae BEBF      		out __SP_H__,r27
 869 04b0 0FBE      		out __SREG__,__tmp_reg__
 870 04b2 ADBF      		out __SP_L__,r26
 871               	.L202:
 872               	.LM177:
 873 04b4 8981      		ldd r24,Y+1
 874 04b6 9A81      		ldd r25,Y+2
 875 04b8 AB81      		ldd r26,Y+3
 876 04ba BC81      		ldd r27,Y+4
 877 04bc 0097      		sbiw r24,0
 878 04be A105      		cpc r26,__zero_reg__
 879 04c0 B105      		cpc r27,__zero_reg__
 880 04c2 61F0      		breq .L188
 881 04c4 8981      		ldd r24,Y+1
 882 04c6 9A81      		ldd r25,Y+2
 883 04c8 AB81      		ldd r26,Y+3
 884 04ca BC81      		ldd r27,Y+4
 885 04cc 0197      		sbiw r24,1
 886 04ce A109      		sbc r26,__zero_reg__
 887 04d0 B109      		sbc r27,__zero_reg__
 888 04d2 8983      		std Y+1,r24
 889 04d4 9A83      		std Y+2,r25
 890 04d6 AB83      		std Y+3,r26
 891 04d8 BC83      		std Y+4,r27
 892 04da ECCF      		rjmp .L202
 893               	.L188:
 894               	.LM178:
 895 04dc 6394      		inc r6
 896 04de B3E6      		ldi r27,lo8(99)
 897 04e0 B615      		cp r27,r6
 898 04e2 38F5      		brsh .L75
 899               	.LM179:
 900 04e4 6624      		clr r6
 901               	.LM180:
 902 04e6 862D      		mov r24,r6
 903 04e8 9DA1      		ldd r25,Y+37
 904 04ea 9923      		tst r25
 905 04ec 09F4      		brne .L76
 906 04ee 81E0      		ldi r24,lo8(1)
 907               	.L76:
 908 04f0 8DA3      		std Y+37,r24
 909               	.LM181:
 910 04f2 8823      		tst r24
 911 04f4 79F0      		breq .L77
 912               	.LM182:
 913 04f6 8BE8      		ldi r24,lo8(-117)
 914 04f8 0E94 0000 		call byteTx
 915               	.LM183:
 916 04fc 8AE0      		ldi r24,lo8(10)
 917 04fe 0E94 0000 		call byteTx
 918               	.LM184:
 919 0502 80E8      		ldi r24,lo8(-128)
 920 0504 0E94 0000 		call byteTx
 921               	.LM185:
 922 0508 8FEF      		ldi r24,lo8(-1)
 923 050a 0E94 0000 		call byteTx
 924               	.LM186:
 925 050e 8BB1      		in r24,43-0x20
 926 0510 8066      		ori r24,lo8(96)
 927 0512 0EC0      		rjmp .L203
 928               	.L77:
 929               	.LM187:
 930 0514 8BE8      		ldi r24,lo8(-117)
 931 0516 0E94 0000 		call byteTx
 932               	.LM188:
 933 051a 862D      		mov r24,r6
 934 051c 0E94 0000 		call byteTx
 935               	.LM189:
 936 0520 862D      		mov r24,r6
 937 0522 0E94 0000 		call byteTx
 938               	.LM190:
 939 0526 862D      		mov r24,r6
 940 0528 0E94 0000 		call byteTx
 941               	.LM191:
 942 052c 8BB1      		in r24,43-0x20
 943 052e 8F79      		andi r24,lo8(-97)
 944               	.L203:
 945 0530 8BB9      		out 43-0x20,r24
 946               	.L75:
 947               	.LM192:
 948 0532 8AE0      		ldi r24,lo8(10)
 949 0534 90E0      		ldi r25,hi8(10)
 950 0536 0E94 0000 		call delayAndUpdateSensors
 951               	.LM193:
 952 053a 4C99      		sbic 41-0x20,4
 953 053c 8FCF      		rjmp .L200
 954               	.LM194:
 955 053e 8DE8      		ldi r24,lo8(-115)
 956 0540 0E94 0000 		call byteTx
 957               	.LM195:
 958 0544 81E0      		ldi r24,lo8(1)
 959 0546 0E94 0000 		call byteTx
 960               	.LM196:
 961 054a 8DEF      		ldi r24,lo8(2813)
 962 054c 9AE0      		ldi r25,hi8(2813)
 963 054e 0E94 0000 		call delayAndUpdateSensors
 964               	.LM197:
 965 0552 0E94 0000 		call aux_rcv_disable
 966               	.LM198:
 967 0556 8091 0000 		lds r24,sensors
 968 055a 9927      		clr r25
 969 055c 9F93      		push r25
 970 055e 8F93      		push r24
 971 0560 8091 0000 		lds r24,sensors+39
 972 0564 9927      		clr r25
 973 0566 9F93      		push r25
 974 0568 8F93      		push r24
 975 056a BF92      		push r11
 976 056c AF92      		push r10
 977 056e 1F93      		push r17
 978 0570 0F93      		push r16
 979 0572 0E94 0000 		call sprintf
 980               	.LM199:
 981 0576 C801      		movw r24,r16
 982 0578 0E94 0000 		call aux_send_line
 983               	.LM200:
 984 057c 80EA      		ldi r24,lo8(100000)
 985 057e 96E8      		ldi r25,hi8(100000)
 986 0580 A1E0      		ldi r26,hlo8(100000)
 987 0582 B0E0      		ldi r27,hhi8(100000)
 988 0584 8983      		std Y+1,r24
 989 0586 9A83      		std Y+2,r25
 990 0588 AB83      		std Y+3,r26
 991 058a BC83      		std Y+4,r27
 992               	.LM201:
 993 058c ADB7      		in r26,__SP_L__
 994 058e BEB7      		in r27,__SP_H__
 995 0590 1896      		adiw r26,8
 996 0592 0FB6      		in __tmp_reg__,__SREG__
 997 0594 F894      		cli
 998 0596 BEBF      		out __SP_H__,r27
 999 0598 0FBE      		out __SREG__,__tmp_reg__
 1000 059a ADBF      		out __SP_L__,r26
 1001               	.L204:
 1002               	.LM202:
 1003 059c 8981      		ldd r24,Y+1
 1004 059e 9A81      		ldd r25,Y+2
 1005 05a0 AB81      		ldd r26,Y+3
 1006 05a2 BC81      		ldd r27,Y+4
 1007 05a4 0097      		sbiw r24,0
 1008 05a6 A105      		cpc r26,__zero_reg__
 1009 05a8 B105      		cpc r27,__zero_reg__
 1010 05aa 09F4      		brne .+2
 1011 05ac 98C2      		rjmp .L217
 1012 05ae 8981      		ldd r24,Y+1
 1013 05b0 9A81      		ldd r25,Y+2
 1014 05b2 AB81      		ldd r26,Y+3
 1015 05b4 BC81      		ldd r27,Y+4
 1016 05b6 0197      		sbiw r24,1
 1017 05b8 A109      		sbc r26,__zero_reg__
 1018 05ba B109      		sbc r27,__zero_reg__
 1019 05bc 8983      		std Y+1,r24
 1020 05be 9A83      		std Y+2,r25
 1021 05c0 AB83      		std Y+3,r26
 1022 05c2 BC83      		std Y+4,r27
 1023 05c4 EBCF      		rjmp .L204
 1024               	.L205:
 1025               	.LM203:
 1026 05c6 8091 0000 		lds r24,sensors
 1027 05ca 9927      		clr r25
 1028 05cc 8C71      		andi r24,lo8(28)
 1029 05ce 9070      		andi r25,hi8(28)
 1030 05d0 892B      		or r24,r25
 1031 05d2 09F0      		breq .+2
 1032 05d4 8BC2      		rjmp .L84
 1033               	.LM204:
 1034 05d6 0E94 0000 		call aux_rcv_disable
 1035               	.LM205:
 1036 05da 8E01      		movw r16,r28
 1037 05dc 0B5F      		subi r16,lo8(-(5))
 1038 05de 1F4F      		sbci r17,hi8(-(5))
 1039 05e0 80E1      		ldi r24,lo8(16)
 1040 05e2 E0E0      		ldi r30,lo8(.LC1)
 1041 05e4 F0E0      		ldi r31,hi8(.LC1)
 1042 05e6 D801      		movw r26,r16
 1043 05e8 0190      		ld __tmp_reg__,Z+
 1044 05ea 0D92      		st X+,__tmp_reg__
 1045 05ec 8A95      		dec r24
 1046 05ee E1F7      		brne .-8
 1047               	.LM206:
 1048 05f0 C801      		movw r24,r16
 1049 05f2 0E94 0000 		call aux_send_line
 1050               	.LM207:
 1051 05f6 80EA      		ldi r24,lo8(100000)
 1052 05f8 96E8      		ldi r25,hi8(100000)
 1053 05fa A1E0      		ldi r26,hlo8(100000)
 1054 05fc B0E0      		ldi r27,hhi8(100000)
 1055               	.L206:
 1056 05fe 8983      		std Y+1,r24
 1057 0600 9A83      		std Y+2,r25
 1058 0602 AB83      		std Y+3,r26
 1059 0604 BC83      		std Y+4,r27
 1060               	.LM208:
 1061 0606 8981      		ldd r24,Y+1
 1062 0608 9A81      		ldd r25,Y+2
 1063 060a AB81      		ldd r26,Y+3
 1064 060c BC81      		ldd r27,Y+4
 1065 060e 0097      		sbiw r24,0
 1066 0610 A105      		cpc r26,__zero_reg__
 1067 0612 B105      		cpc r27,__zero_reg__
 1068 0614 41F0      		breq .L193
 1069 0616 8981      		ldd r24,Y+1
 1070 0618 9A81      		ldd r25,Y+2
 1071 061a AB81      		ldd r26,Y+3
 1072 061c BC81      		ldd r27,Y+4
 1073 061e 0197      		sbiw r24,1
 1074 0620 A109      		sbc r26,__zero_reg__
 1075 0622 B109      		sbc r27,__zero_reg__
 1076 0624 ECCF      		rjmp .L206
 1077               	.L193:
 1078               	.LM209:
 1079 0626 0E94 0000 		call aux_rcv_disable
 1080               	.LM210:
 1081 062a 8091 0000 		lds r24,sensors
 1082 062e 9927      		clr r25
 1083 0630 9F93      		push r25
 1084 0632 8F93      		push r24
 1085 0634 8091 0000 		lds r24,sensors+39
 1086 0638 9927      		clr r25
 1087 063a 9F93      		push r25
 1088 063c 8F93      		push r24
 1089 063e 90E0      		ldi r25,lo8(.LC0)
 1090 0640 A92E      		mov r10,r25
 1091 0642 90E0      		ldi r25,hi8(.LC0)
 1092 0644 B92E      		mov r11,r25
 1093 0646 BF92      		push r11
 1094 0648 AF92      		push r10
 1095 064a 1F93      		push r17
 1096 064c 0F93      		push r16
 1097 064e 0E94 0000 		call sprintf
 1098               	.LM211:
 1099 0652 C801      		movw r24,r16
 1100 0654 0E94 0000 		call aux_send_line
 1101               	.LM212:
 1102 0658 80EA      		ldi r24,lo8(100000)
 1103 065a 96E8      		ldi r25,hi8(100000)
 1104 065c A1E0      		ldi r26,hlo8(100000)
 1105 065e B0E0      		ldi r27,hhi8(100000)
 1106 0660 8983      		std Y+1,r24
 1107 0662 9A83      		std Y+2,r25
 1108 0664 AB83      		std Y+3,r26
 1109 0666 BC83      		std Y+4,r27
 1110               	.LM213:
 1111 0668 8DB7      		in r24,__SP_L__
 1112 066a 9EB7      		in r25,__SP_H__
 1113 066c 0896      		adiw r24,8
 1114 066e 0FB6      		in __tmp_reg__,__SREG__
 1115 0670 F894      		cli
 1116 0672 9EBF      		out __SP_H__,r25
 1117 0674 0FBE      		out __SREG__,__tmp_reg__
 1118 0676 8DBF      		out __SP_L__,r24
 1119               	.L207:
 1120               	.LM214:
 1121 0678 8981      		ldd r24,Y+1
 1122 067a 9A81      		ldd r25,Y+2
 1123 067c AB81      		ldd r26,Y+3
 1124 067e BC81      		ldd r27,Y+4
 1125 0680 0097      		sbiw r24,0
 1126 0682 A105      		cpc r26,__zero_reg__
 1127 0684 B105      		cpc r27,__zero_reg__
 1128 0686 61F0      		breq .L195
 1129 0688 8981      		ldd r24,Y+1
 1130 068a 9A81      		ldd r25,Y+2
 1131 068c AB81      		ldd r26,Y+3
 1132 068e BC81      		ldd r27,Y+4
 1133 0690 0197      		sbiw r24,1
 1134 0692 A109      		sbc r26,__zero_reg__
 1135 0694 B109      		sbc r27,__zero_reg__
 1136 0696 8983      		std Y+1,r24
 1137 0698 9A83      		std Y+2,r25
 1138 069a AB83      		std Y+3,r26
 1139 069c BC83      		std Y+4,r27
 1140 069e ECCF      		rjmp .L207
 1141               	.L195:
 1142               	.LM215:
 1143 06a0 3320      		tst r3
 1144 06a2 89F1      		breq .L91
 1145               	.LM216:
 1146 06a4 9EA1      		ldd r25,Y+38
 1147 06a6 9923      		tst r25
 1148 06a8 99F0      		breq .L92
 1149               	.LM217:
 1150 06aa 8091 0000 		lds r24,distance
 1151 06ae 9091 0000 		lds r25,(distance)+1
 1152 06b2 9095      		com r25
 1153 06b4 8195      		neg r24
 1154 06b6 9F4F      		sbci r25,lo8(-1)
 1155 06b8 0B97      		sbiw r24,11
 1156 06ba 2CF0      		brlt .L93
 1157               	.LM218:
 1158 06bc 1EA2      		std Y+38,__zero_reg__
 1159               	.LM219:
 1160 06be 1092 0000 		sts (distance)+1,__zero_reg__
 1161 06c2 1092 0000 		sts distance,__zero_reg__
 1162               	.L93:
 1163               	.LM220:
 1164 06c6 60E0      		ldi r22,lo8(-32768)
 1165 06c8 70E8      		ldi r23,hi8(-32768)
 1166 06ca 88E3      		ldi r24,lo8(-200)
 1167 06cc 9FEF      		ldi r25,hi8(-200)
 1168 06ce 73C1      		rjmp .L213
 1169               	.L92:
 1170               	.LM221:
 1171 06d0 9920      		tst r9
 1172 06d2 59F0      		breq .L95
 1173               	.LM222:
 1174 06d4 8091 0000 		lds r24,angle
 1175 06d8 9091 0000 		lds r25,(angle)+1
 1176 06dc C816      		cp r12,r24
 1177 06de D906      		cpc r13,r25
 1178 06e0 0CF4      		brge .L96
 1179               	.LM223:
 1180 06e2 3EA0      		ldd r3,Y+38
 1181               	.L96:
 1182               	.LM224:
 1183 06e4 61E0      		ldi r22,lo8(1)
 1184 06e6 70E0      		ldi r23,hi8(1)
 1185 06e8 64C1      		rjmp .L212
 1186               	.L95:
 1187               	.LM225:
 1188 06ea 8091 0000 		lds r24,angle
 1189 06ee 9091 0000 		lds r25,(angle)+1
 1190 06f2 9095      		com r25
 1191 06f4 8195      		neg r24
 1192 06f6 9F4F      		sbci r25,lo8(-1)
 1193 06f8 C816      		cp r12,r24
 1194 06fa D906      		cpc r13,r25
 1195 06fc 0CF4      		brge .L98
 1196               	.LM226:
 1197 06fe 392C      		mov r3,r9
 1198               	.L98:
 1199               	.LM227:
 1200 0700 6FEF      		ldi r22,lo8(-1)
 1201 0702 7FEF      		ldi r23,hi8(-1)
 1202 0704 56C1      		rjmp .L212
 1203               	.L91:
 1204               	.LM228:
 1205 0706 8091 0000 		lds r24,sensors
 1206 070a 282F      		mov r18,r24
 1207 070c 3327      		clr r19
 1208 070e 2370      		andi r18,lo8(3)
 1209 0710 3070      		andi r19,hi8(3)
 1210 0712 2115      		cp r18,__zero_reg__
 1211 0714 3105      		cpc r19,__zero_reg__
 1212 0716 89F4      		brne .L101
 1213 0718 8091 0000 		lds r24,sensors+2
 1214 071c 8823      		tst r24
 1215 071e 69F4      		brne .L101
 1216 0720 8091 0000 		lds r24,sensors+3
 1217 0724 8823      		tst r24
 1218 0726 49F4      		brne .L101
 1219 0728 8091 0000 		lds r24,sensors+4
 1220 072c 8823      		tst r24
 1221 072e 29F4      		brne .L101
 1222 0730 8091 0000 		lds r24,sensors+5
 1223 0734 8823      		tst r24
 1224 0736 09F4      		brne .+2
 1225 0738 FAC0      		rjmp .L100
 1226               	.L101:
 1227               	.LM229:
 1228 073a 60E0      		ldi r22,lo8(-32768)
 1229 073c 70E8      		ldi r23,hi8(-32768)
 1230 073e 80E0      		ldi r24,lo8(0)
 1231 0740 90E0      		ldi r25,hi8(0)
 1232 0742 0E94 0000 		call drive
 1233               	.LM230:
 1234 0746 81E0      		ldi r24,lo8(1)
 1235 0748 982E      		mov r9,r24
 1236               	.LM231:
 1237 074a B0E5      		ldi r27,lo8(80)
 1238 074c CB2E      		mov r12,r27
 1239 074e D12C      		mov r13,__zero_reg__
 1240               	.LM232:
 1241 0750 FF20      		tst r15
 1242 0752 91F5      		brne .L102
 1243               	.LM233:
 1244 0754 8091 0000 		lds r24,sensors
 1245 0758 9927      		clr r25
 1246 075a 8370      		andi r24,lo8(3)
 1247 075c 9070      		andi r25,hi8(3)
 1248 075e 892B      		or r24,r25
 1249 0760 41F4      		brne .L104
 1250 0762 8091 0000 		lds r24,sensors+3
 1251 0766 8823      		tst r24
 1252 0768 21F4      		brne .L104
 1253 076a 8091 0000 		lds r24,sensors+4
 1254 076e 8823      		tst r24
 1255 0770 19F0      		breq .L103
 1256               	.L104:
 1257               	.LM234:
 1258 0772 A1E0      		ldi r26,lo8(1)
 1259 0774 5A2E      		mov r5,r26
 1260 0776 0AC0      		rjmp .L105
 1261               	.L103:
 1262               	.LM235:
 1263 0778 8091 0000 		lds r24,sensors+2
 1264 077c 8823      		tst r24
 1265 077e 11F0      		breq .L106
 1266               	.LM236:
 1267 0780 492C      		mov r4,r9
 1268 0782 0BC0      		rjmp .L109
 1269               	.L106:
 1270               	.LM237:
 1271 0784 8091 0000 		lds r24,sensors+5
 1272 0788 8111      		cpse r24,__zero_reg__
 1273               	.LM238:
 1274 078a 792C      		mov r7,r9
 1275               	.L105:
 1276               	.LM239:
 1277 078c 4420      		tst r4
 1278 078e 29F4      		brne .L109
 1279 0790 8091 0000 		lds r24,sensors+3
 1280 0794 8823      		tst r24
 1281 0796 09F4      		brne .+2
 1282 0798 B5C0      		rjmp .L208
 1283               	.L109:
 1284               	.LM240:
 1285 079a 7720      		tst r7
 1286 079c 31F4      		brne .L111
 1287 079e 8091 0000 		lds r24,sensors+4
 1288 07a2 8823      		tst r24
 1289 07a4 11F4      		brne .L111
 1290               	.LM241:
 1291 07a6 972C      		mov r9,r7
 1292 07a8 A1C0      		rjmp .L211
 1293               	.L111:
 1294               	.LM242:
 1295 07aa 8820      		tst r8
 1296 07ac 09F0      		breq .+2
 1297 07ae 9EC1      		rjmp .L84
 1298               	.LM243:
 1299 07b0 FAEA      		ldi r31,lo8(170)
 1300 07b2 CF2E      		mov r12,r31
 1301 07b4 D12C      		mov r13,__zero_reg__
 1302 07b6 6EC0      		rjmp .L210
 1303               	.L102:
 1304               	.LM244:
 1305 07b8 A2E0      		ldi r26,lo8(2)
 1306 07ba FA16      		cp r15,r26
 1307 07bc B1F5      		brne .L116
 1308               	.LM245:
 1309 07be 8091 0000 		lds r24,sensors
 1310 07c2 9927      		clr r25
 1311 07c4 8370      		andi r24,lo8(3)
 1312 07c6 9070      		andi r25,hi8(3)
 1313 07c8 892B      		or r24,r25
 1314 07ca 41F4      		brne .L118
 1315 07cc 8091 0000 		lds r24,sensors+3
 1316 07d0 8823      		tst r24
 1317 07d2 21F4      		brne .L118
 1318 07d4 8091 0000 		lds r24,sensors+4
 1319 07d8 8823      		tst r24
 1320 07da 19F0      		breq .L117
 1321               	.L118:
 1322               	.LM246:
 1323 07dc E1E0      		ldi r30,lo8(1)
 1324 07de 4E2E      		mov r4,r30
 1325 07e0 0CC0      		rjmp .L119
 1326               	.L117:
 1327               	.LM247:
 1328 07e2 8091 0000 		lds r24,sensors+2
 1329 07e6 8823      		tst r24
 1330 07e8 11F0      		breq .L120
 1331               	.LM248:
 1332 07ea 892C      		mov r8,r9
 1333 07ec 06C0      		rjmp .L119
 1334               	.L120:
 1335               	.LM249:
 1336 07ee 8091 0000 		lds r24,sensors+5
 1337 07f2 8823      		tst r24
 1338 07f4 11F0      		breq .L119
 1339               	.LM250:
 1340 07f6 592C      		mov r5,r9
 1341 07f8 09C0      		rjmp .L123
 1342               	.L119:
 1343               	.LM251:
 1344 07fa 5520      		tst r5
 1345 07fc 39F4      		brne .L123
 1346 07fe 8091 0000 		lds r24,sensors+4
 1347 0802 8823      		tst r24
 1348 0804 19F4      		brne .L123
 1349               	.LM252:
 1350 0806 F52C      		mov r15,r5
 1351               	.LM253:
 1352 0808 952C      		mov r9,r5
 1353 080a 7EC0      		rjmp .L115
 1354               	.L123:
 1355               	.LM254:
 1356 080c 7720      		tst r7
 1357 080e 21F4      		brne .L125
 1358               	.LM255:
 1359 0810 7AEA      		ldi r23,lo8(170)
 1360 0812 C72E      		mov r12,r23
 1361 0814 D12C      		mov r13,__zero_reg__
 1362 0816 6AC0      		rjmp .L211
 1363               	.L125:
 1364               	.LM256:
 1365 0818 8820      		tst r8
 1366 081a 09F0      		breq .+2
 1367 081c 67C1      		rjmp .L84
 1368 081e 8091 0000 		lds r24,sensors+3
 1369 0822 8823      		tst r24
 1370 0824 09F0      		breq .+2
 1371 0826 62C1      		rjmp .L84
 1372 0828 35C0      		rjmp .L210
 1373               	.L116:
 1374               	.LM257:
 1375 082a B3E0      		ldi r27,lo8(3)
 1376 082c FB16      		cp r15,r27
 1377 082e A9F5      		brne .L130
 1378               	.LM258:
 1379 0830 792C      		mov r7,r9
 1380               	.LM259:
 1381 0832 8091 0000 		lds r24,sensors
 1382 0836 9927      		clr r25
 1383 0838 8370      		andi r24,lo8(3)
 1384 083a 9070      		andi r25,hi8(3)
 1385 083c 892B      		or r24,r25
 1386 083e 41F4      		brne .L132
 1387 0840 8091 0000 		lds r24,sensors+3
 1388 0844 8823      		tst r24
 1389 0846 21F4      		brne .L132
 1390 0848 8091 0000 		lds r24,sensors+4
 1391 084c 8823      		tst r24
 1392 084e 19F0      		breq .L131
 1393               	.L132:
 1394               	.LM260:
 1395 0850 61E0      		ldi r22,lo8(1)
 1396 0852 762E      		mov r7,r22
 1397 0854 0AC0      		rjmp .L133
 1398               	.L131:
 1399               	.LM261:
 1400 0856 8091 0000 		lds r24,sensors+2
 1401 085a 8823      		tst r24
 1402 085c 11F0      		breq .L134
 1403               	.LM262:
 1404 085e 592C      		mov r5,r9
 1405 0860 0AC0      		rjmp .L137
 1406               	.L134:
 1407               	.LM263:
 1408 0862 8091 0000 		lds r24,sensors+5
 1409 0866 8111      		cpse r24,__zero_reg__
 1410               	.LM264:
 1411 0868 892C      		mov r8,r9
 1412               	.L133:
 1413               	.LM265:
 1414 086a 5520      		tst r5
 1415 086c 21F4      		brne .L137
 1416 086e 8091 0000 		lds r24,sensors+3
 1417 0872 8823      		tst r24
 1418 0874 99F1      		breq .L209
 1419               	.L137:
 1420               	.LM266:
 1421 0876 4420      		tst r4
 1422 0878 21F4      		brne .L139
 1423               	.LM267:
 1424 087a 5AEA      		ldi r21,lo8(170)
 1425 087c C52E      		mov r12,r21
 1426 087e D12C      		mov r13,__zero_reg__
 1427 0880 41C0      		rjmp .L208
 1428               	.L139:
 1429               	.LM268:
 1430 0882 8820      		tst r8
 1431 0884 09F0      		breq .+2
 1432 0886 32C1      		rjmp .L84
 1433 0888 8091 0000 		lds r24,sensors+4
 1434 088c 8823      		tst r24
 1435 088e 09F0      		breq .+2
 1436 0890 2DC1      		rjmp .L84
 1437               	.LM269:
 1438 0892 982C      		mov r9,r8
 1439               	.L210:
 1440               	.LM270:
 1441 0894 41E0      		ldi r20,lo8(1)
 1442 0896 F42E      		mov r15,r20
 1443 0898 37C0      		rjmp .L115
 1444               	.L130:
 1445               	.LM271:
 1446 089a 8091 0000 		lds r24,sensors
 1447 089e 9927      		clr r25
 1448 08a0 8370      		andi r24,lo8(3)
 1449 08a2 9070      		andi r25,hi8(3)
 1450 08a4 892B      		or r24,r25
 1451 08a6 41F4      		brne .L145
 1452 08a8 8091 0000 		lds r24,sensors+3
 1453 08ac 8823      		tst r24
 1454 08ae 21F4      		brne .L145
 1455 08b0 8091 0000 		lds r24,sensors+4
 1456 08b4 8823      		tst r24
 1457 08b6 19F0      		breq .L144
 1458               	.L145:
 1459               	.LM272:
 1460 08b8 31E0      		ldi r19,lo8(1)
 1461 08ba 832E      		mov r8,r19
 1462 08bc 0AC0      		rjmp .L146
 1463               	.L144:
 1464               	.LM273:
 1465 08be 8091 0000 		lds r24,sensors+2
 1466 08c2 8823      		tst r24
 1467 08c4 11F0      		breq .L147
 1468               	.LM274:
 1469 08c6 792C      		mov r7,r9
 1470 08c8 04C0      		rjmp .L146
 1471               	.L147:
 1472               	.LM275:
 1473 08ca 8091 0000 		lds r24,sensors+5
 1474 08ce 8111      		cpse r24,__zero_reg__
 1475               	.LM276:
 1476 08d0 492C      		mov r4,r9
 1477               	.L146:
 1478               	.LM277:
 1479 08d2 5520      		tst r5
 1480 08d4 29F4      		brne .L150
 1481               	.LM278:
 1482 08d6 2AEA      		ldi r18,lo8(170)
 1483 08d8 C22E      		mov r12,r18
 1484 08da D12C      		mov r13,__zero_reg__
 1485               	.L209:
 1486               	.LM279:
 1487 08dc F52C      		mov r15,r5
 1488 08de 14C0      		rjmp .L115
 1489               	.L150:
 1490               	.LM280:
 1491 08e0 7720      		tst r7
 1492 08e2 39F4      		brne .L152
 1493 08e4 8091 0000 		lds r24,sensors+2
 1494 08e8 8823      		tst r24
 1495 08ea 19F4      		brne .L152
 1496               	.L211:
 1497               	.LM281:
 1498 08ec 93E0      		ldi r25,lo8(3)
 1499 08ee F92E      		mov r15,r25
 1500 08f0 0BC0      		rjmp .L115
 1501               	.L152:
 1502               	.LM282:
 1503 08f2 4420      		tst r4
 1504 08f4 09F0      		breq .+2
 1505 08f6 FAC0      		rjmp .L84
 1506 08f8 8091 0000 		lds r24,sensors+5
 1507 08fc 8823      		tst r24
 1508 08fe 09F0      		breq .+2
 1509 0900 F5C0      		rjmp .L84
 1510               	.LM283:
 1511 0902 942C      		mov r9,r4
 1512               	.L208:
 1513               	.LM284:
 1514 0904 82E0      		ldi r24,lo8(2)
 1515 0906 F82E      		mov r15,r24
 1516               	.L115:
 1517               	.LM285:
 1518 0908 B1E0      		ldi r27,lo8(1)
 1519 090a 3B2E      		mov r3,r27
 1520               	.LM286:
 1521 090c 3EA2      		std Y+38,r3
 1522               	.LM287:
 1523 090e 1092 0000 		sts (distance)+1,__zero_reg__
 1524 0912 1092 0000 		sts distance,__zero_reg__
 1525               	.LM288:
 1526 0916 1092 0000 		sts (angle)+1,__zero_reg__
 1527 091a 1092 0000 		sts angle,__zero_reg__
 1528               	.LM289:
 1529 091e 2224      		clr r2
 1530               	.LM290:
 1531 0920 8DE8      		ldi r24,lo8(-115)
 1532 0922 0E94 0000 		call byteTx
 1533               	.LM291:
 1534 0926 82E0      		ldi r24,lo8(2)
 1535 0928 0E94 0000 		call byteTx
 1536 092c 4FC0      		rjmp .L99
 1537               	.L100:
 1538               	.LM292:
 1539 092e C901      		movw r24,r18
 1540 0930 2220      		tst r2
 1541 0932 11F4      		brne .L158
 1542 0934 81E0      		ldi r24,lo8(1)
 1543 0936 90E0      		ldi r25,hi8(1)
 1544               	.L158:
 1545 0938 80FF      		sbrs r24,0
 1546 093a 40C0      		rjmp .L157
 1547               	.LM293:
 1548 093c 8091 0000 		lds r24,distance
 1549 0940 9091 0000 		lds r25,(distance)+1
 1550 0944 893C      		cpi r24,201
 1551 0946 9105      		cpc r25,__zero_reg__
 1552 0948 94F1      		brlt .L160
 1553               	.LM294:
 1554 094a 3093 0000 		sts (angle)+1,r19
 1555 094e 2093 0000 		sts angle,r18
 1556               	.LM295:
 1557 0952 3093 0000 		sts (distance)+1,r19
 1558 0956 2093 0000 		sts distance,r18
 1559               	.LM296:
 1560 095a A0E5      		ldi r26,lo8(80)
 1561 095c CA2E      		mov r12,r26
 1562 095e D12C      		mov r13,__zero_reg__
 1563               	.LM297:
 1564 0960 82E0      		ldi r24,lo8(2)
 1565 0962 F816      		cp r15,r24
 1566 0964 41F4      		brne .L161
 1567               	.LM298:
 1568 0966 832C      		mov r8,r3
 1569               	.LM299:
 1570 0968 532C      		mov r5,r3
 1571               	.LM300:
 1572 096a F32C      		mov r15,r3
 1573               	.LM301:
 1574 096c 932C      		mov r9,r3
 1575               	.LM302:
 1576 096e F1E0      		ldi r31,lo8(1)
 1577 0970 3F2E      		mov r3,r31
 1578               	.LM303:
 1579 0972 232C      		mov r2,r3
 1580 0974 2BC0      		rjmp .L99
 1581               	.L161:
 1582               	.LM304:
 1583 0976 93E0      		ldi r25,lo8(3)
 1584 0978 F916      		cp r15,r25
 1585 097a 41F4      		brne .L163
 1586               	.LM305:
 1587 097c 832C      		mov r8,r3
 1588               	.LM306:
 1589 097e 532C      		mov r5,r3
 1590               	.LM307:
 1591 0980 E1E0      		ldi r30,lo8(1)
 1592 0982 9E2E      		mov r9,r30
 1593               	.LM308:
 1594 0984 F32C      		mov r15,r3
 1595               	.LM309:
 1596 0986 292C      		mov r2,r9
 1597               	.LM310:
 1598 0988 392C      		mov r3,r9
 1599 098a 20C0      		rjmp .L99
 1600               	.L163:
 1601               	.LM311:
 1602 098c A1E0      		ldi r26,lo8(1)
 1603 098e FA16      		cp r15,r26
 1604 0990 E9F4      		brne .L99
 1605               	.LM312:
 1606 0992 4420      		tst r4
 1607 0994 21F0      		breq .L166
 1608               	.LM313:
 1609 0996 9F2C      		mov r9,r15
 1610               	.LM314:
 1611 0998 73E0      		ldi r23,lo8(3)
 1612 099a F72E      		mov r15,r23
 1613 099c 03C0      		rjmp .L167
 1614               	.L166:
 1615               	.LM315:
 1616 099e 932C      		mov r9,r3
 1617               	.LM316:
 1618 09a0 62E0      		ldi r22,lo8(2)
 1619 09a2 F62E      		mov r15,r22
 1620               	.L167:
 1621               	.LM317:
 1622 09a4 7724      		clr r7
 1623               	.LM318:
 1624 09a6 472C      		mov r4,r7
 1625               	.LM319:
 1626 09a8 51E0      		ldi r21,lo8(1)
 1627 09aa 352E      		mov r3,r21
 1628 09ac 0FC0      		rjmp .L99
 1629               	.L160:
 1630               	.LM320:
 1631 09ae 60E0      		ldi r22,lo8(-32768)
 1632 09b0 70E8      		ldi r23,hi8(-32768)
 1633               	.L212:
 1634 09b2 88EC      		ldi r24,lo8(200)
 1635 09b4 90E0      		ldi r25,hi8(200)
 1636               	.L213:
 1637 09b6 0E94 0000 		call drive
 1638 09ba 08C0      		rjmp .L99
 1639               	.L157:
 1640               	.LM321:
 1641 09bc 60E0      		ldi r22,lo8(-32768)
 1642 09be 70E8      		ldi r23,hi8(-32768)
 1643 09c0 88EC      		ldi r24,lo8(200)
 1644 09c2 90E0      		ldi r25,hi8(200)
 1645 09c4 0E94 0000 		call drive
 1646               	.LM322:
 1647 09c8 432C      		mov r4,r3
 1648               	.LM323:
 1649 09ca 732C      		mov r7,r3
 1650               	.L99:
 1651               	.LM324:
 1652 09cc 6394      		inc r6
 1653 09ce B9E0      		ldi r27,lo8(9)
 1654 09d0 B615      		cp r27,r6
 1655 09d2 08F0      		brlo .+2
 1656 09d4 5BC0      		rjmp .L170
 1657               	.LM325:
 1658 09d6 6624      		clr r6
 1659               	.LM326:
 1660 09d8 3320      		tst r3
 1661 09da 39F0      		breq .L171
 1662               	.LM327:
 1663 09dc EE20      		tst r14
 1664 09de 19F4      		brne .L172
 1665               	.LM328:
 1666 09e0 44E0      		ldi r20,lo8(4)
 1667 09e2 E42E      		mov r14,r20
 1668 09e4 45C0      		rjmp .L197
 1669               	.L172:
 1670               	.LM329:
 1671 09e6 EA94      		dec r14
 1672 09e8 06C0      		rjmp .L174
 1673               	.L171:
 1674               	.LM330:
 1675 09ea 84E0      		ldi r24,lo8(4)
 1676 09ec E816      		cp r14,r24
 1677 09ee 11F4      		brne .L175
 1678               	.LM331:
 1679 09f0 E32C      		mov r14,r3
 1680 09f2 03C0      		rjmp .L196
 1681               	.L175:
 1682               	.LM332:
 1683 09f4 E394      		inc r14
 1684               	.L174:
 1685               	.LM333:
 1686 09f6 EE20      		tst r14
 1687 09f8 59F4      		brne .L177
 1688               	.L196:
 1689               	.LM334:
 1690 09fa 8BE8      		ldi r24,lo8(-117)
 1691 09fc 0E94 0000 		call byteTx
 1692               	.LM335:
 1693 0a00 8E2D      		mov r24,r14
 1694 0a02 0E94 0000 		call byteTx
 1695               	.LM336:
 1696 0a06 80E8      		ldi r24,lo8(-128)
 1697 0a08 0E94 0000 		call byteTx
 1698               	.LM337:
 1699 0a0c 8FEF      		ldi r24,lo8(-1)
 1700 0a0e 15C0      		rjmp .L215
 1701               	.L177:
 1702               	.LM338:
 1703 0a10 91E0      		ldi r25,lo8(1)
 1704 0a12 E916      		cp r14,r25
 1705 0a14 29F4      		brne .L179
 1706               	.LM339:
 1707 0a16 8BE8      		ldi r24,lo8(-117)
 1708 0a18 0E94 0000 		call byteTx
 1709               	.LM340:
 1710 0a1c 82E0      		ldi r24,lo8(2)
 1711 0a1e 07C0      		rjmp .L214
 1712               	.L179:
 1713               	.LM341:
 1714 0a20 A2E0      		ldi r26,lo8(2)
 1715 0a22 EA16      		cp r14,r26
 1716 0a24 81F4      		brne .L181
 1717               	.LM342:
 1718 0a26 8BE8      		ldi r24,lo8(-117)
 1719 0a28 0E94 0000 		call byteTx
 1720               	.LM343:
 1721 0a2c 88E0      		ldi r24,lo8(8)
 1722               	.L214:
 1723 0a2e 0E94 0000 		call byteTx
 1724               	.LM344:
 1725 0a32 80E0      		ldi r24,lo8(0)
 1726 0a34 0E94 0000 		call byteTx
 1727               	.LM345:
 1728 0a38 80E0      		ldi r24,lo8(0)
 1729               	.L215:
 1730 0a3a 0E94 0000 		call byteTx
 1731               	.LM346:
 1732 0a3e 8BB1      		in r24,43-0x20
 1733 0a40 8066      		ori r24,lo8(96)
 1734 0a42 8BB9      		out 43-0x20,r24
 1735 0a44 23C0      		rjmp .L170
 1736               	.L181:
 1737               	.LM347:
 1738 0a46 B3E0      		ldi r27,lo8(3)
 1739 0a48 EB16      		cp r14,r27
 1740 0a4a 79F4      		brne .L183
 1741               	.LM348:
 1742 0a4c 8BE8      		ldi r24,lo8(-117)
 1743 0a4e 0E94 0000 		call byteTx
 1744               	.LM349:
 1745 0a52 80E0      		ldi r24,lo8(0)
 1746 0a54 0E94 0000 		call byteTx
 1747               	.LM350:
 1748 0a58 80E0      		ldi r24,lo8(0)
 1749 0a5a 0E94 0000 		call byteTx
 1750               	.LM351:
 1751 0a5e 80E0      		ldi r24,lo8(0)
 1752 0a60 0E94 0000 		call byteTx
 1753               	.LM352:
 1754 0a64 5E98      		cbi 43-0x20,6
 1755               	.LM353:
 1756 0a66 5D9A      		sbi 43-0x20,5
 1757 0a68 11C0      		rjmp .L170
 1758               	.L183:
 1759               	.LM354:
 1760 0a6a 84E0      		ldi r24,lo8(4)
 1761 0a6c E816      		cp r14,r24
 1762 0a6e 71F4      		brne .L170
 1763               	.L197:
 1764               	.LM355:
 1765 0a70 8BE8      		ldi r24,lo8(-117)
 1766 0a72 0E94 0000 		call byteTx
 1767               	.LM356:
 1768 0a76 80E0      		ldi r24,lo8(0)
 1769 0a78 0E94 0000 		call byteTx
 1770               	.LM357:
 1771 0a7c 80E0      		ldi r24,lo8(0)
 1772 0a7e 0E94 0000 		call byteTx
 1773               	.LM358:
 1774 0a82 80E0      		ldi r24,lo8(0)
 1775 0a84 0E94 0000 		call byteTx
 1776               	.LM359:
 1777 0a88 5D98      		cbi 43-0x20,5
 1778               	.LM360:
 1779 0a8a 5E9A      		sbi 43-0x20,6
 1780               	.L170:
 1781               	.LM361:
 1782 0a8c 84E1      		ldi r24,lo8(20)
 1783 0a8e 90E0      		ldi r25,hi8(20)
 1784 0a90 0E94 0000 		call delayAndUpdateSensors
 1785               	.LM362:
 1786 0a94 0E94 0000 		call aux_rcv_disable
 1787               	.LM363:
 1788 0a98 8091 0000 		lds r24,sensors
 1789 0a9c 9927      		clr r25
 1790 0a9e 9F93      		push r25
 1791 0aa0 8F93      		push r24
 1792 0aa2 8091 0000 		lds r24,sensors+39
 1793 0aa6 9927      		clr r25
 1794 0aa8 9F93      		push r25
 1795 0aaa 8F93      		push r24
 1796 0aac BF92      		push r11
 1797 0aae AF92      		push r10
 1798 0ab0 1F93      		push r17
 1799 0ab2 0F93      		push r16
 1800 0ab4 0E94 0000 		call sprintf
 1801               	.LM364:
 1802 0ab8 C801      		movw r24,r16
 1803 0aba 0E94 0000 		call aux_send_line
 1804               	.LM365:
 1805 0abe 80EA      		ldi r24,lo8(100000)
 1806 0ac0 96E8      		ldi r25,hi8(100000)
 1807 0ac2 A1E0      		ldi r26,hlo8(100000)
 1808 0ac4 B0E0      		ldi r27,hhi8(100000)
 1809 0ac6 8983      		std Y+1,r24
 1810 0ac8 9A83      		std Y+2,r25
 1811 0aca AB83      		std Y+3,r26
 1812 0acc BC83      		std Y+4,r27
 1813 0ace ADB7      		in r26,__SP_L__
 1814 0ad0 BEB7      		in r27,__SP_H__
 1815 0ad2 1896      		adiw r26,8
 1816 0ad4 0FB6      		in __tmp_reg__,__SREG__
 1817 0ad6 F894      		cli
 1818 0ad8 BEBF      		out __SP_H__,r27
 1819 0ada 0FBE      		out __SREG__,__tmp_reg__
 1820 0adc ADBF      		out __SP_L__,r26
 1821               	.L217:
 1822 0ade 4C9B      		sbis 41-0x20,4
 1823 0ae0 05C0      		rjmp .L84
 1824 0ae2 8091 0000 		lds r24,sensors+39
 1825 0ae6 8823      		tst r24
 1826 0ae8 09F4      		brne .+2
 1827 0aea 6DCD      		rjmp .L205
 1828               	.L84:
 1829               	.LM366:
 1830 0aec 60E0      		ldi r22,lo8(-32768)
 1831 0aee 70E8      		ldi r23,hi8(-32768)
 1832 0af0 80E0      		ldi r24,lo8(0)
 1833 0af2 90E0      		ldi r25,hi8(0)
 1834 0af4 0E94 0000 		call drive
 1835               	.LM367:
 1836 0af8 84EF      		ldi r24,lo8(500)
 1837 0afa 91E0      		ldi r25,hi8(500)
 1838 0afc 0E94 0000 		call delayAndUpdateSensors
 1839               	.LM368:
 1840 0b00 8DE8      		ldi r24,lo8(-115)
 1841 0b02 0E94 0000 		call byteTx
 1842               	.LM369:
 1843 0b06 83E0      		ldi r24,lo8(3)
 1844 0b08 0E94 0000 		call byteTx
 1845               	.LM370:
 1846 0b0c 86E8      		ldi r24,lo8(2438)
 1847 0b0e 99E0      		ldi r25,hi8(2438)
 1848 0b10 A3CC      		rjmp .L201
 1849               	.LBE2:
 1850               	/* epilogue: frame size=38 */
 1851               	/* epilogue: noreturn */
 1852               	/* epilogue end (size=0) */
 1853               	/* function main size 923 (919) */
 1854               	.LFE4:
 1856               	.global	randomAngle
 1858               	randomAngle:
 1859               	.LFB14:
 1860               	.LM371:
 1861               	/* prologue: frame size=0 */
 1862               	/* prologue end (size=0) */
 1863               	.LM372:
 1864 0b12 0E94 0000 		call random
 1865 0b16 DC01      		movw r26,r24
 1866 0b18 CB01      		movw r24,r22
 1867 0b1a 9070      		andi r25,hi8(255)
 1868 0b1c 9695      		lsr r25
 1869 0b1e 8795      		ror r24
 1870               	.LM373:
 1871 0b20 C596      		adiw r24,53
 1872               	/* epilogue: frame size=0 */
 1873 0b22 0895      		ret
 1874               	/* epilogue end (size=1) */
 1875               	/* function randomAngle size 10 (9) */
 1876               	.LFE14:
 1878               		.comm sensors_in,52,1
 1879               		.comm sensors,52,1
 1880               	.Letext0:
DEFINED SYMBOLS
                            *ABS*:00000000 drive.c
C:\DOCUME~1\Uyen\LOCALS~1\Temp/ccOGbaaa.s:3      *ABS*:0000003f __SREG__
C:\DOCUME~1\Uyen\LOCALS~1\Temp/ccOGbaaa.s:4      *ABS*:0000003e __SP_H__
C:\DOCUME~1\Uyen\LOCALS~1\Temp/ccOGbaaa.s:5      *ABS*:0000003d __SP_L__
C:\DOCUME~1\Uyen\LOCALS~1\Temp/ccOGbaaa.s:6      *ABS*:00000000 __tmp_reg__
C:\DOCUME~1\Uyen\LOCALS~1\Temp/ccOGbaaa.s:7      *ABS*:00000001 __zero_reg__
C:\DOCUME~1\Uyen\LOCALS~1\Temp/ccOGbaaa.s:23     .bss:00000000 angle
C:\DOCUME~1\Uyen\LOCALS~1\Temp/ccOGbaaa.s:29     .bss:00000002 distance
C:\DOCUME~1\Uyen\LOCALS~1\Temp/ccOGbaaa.s:35     .bss:00000004 sensors_index
C:\DOCUME~1\Uyen\LOCALS~1\Temp/ccOGbaaa.s:41     .bss:00000005 sensors_flag
C:\DOCUME~1\Uyen\LOCALS~1\Temp/ccOGbaaa.s:47     .bss:00000006 timer_on
C:\DOCUME~1\Uyen\LOCALS~1\Temp/ccOGbaaa.s:53     .bss:00000007 timer_cnt
C:\DOCUME~1\Uyen\LOCALS~1\Temp/ccOGbaaa.s:58     .text:00000000 initialize
C:\DOCUME~1\Uyen\LOCALS~1\Temp/ccOGbaaa.s:120    .text:00000050 byteTx
C:\DOCUME~1\Uyen\LOCALS~1\Temp/ccOGbaaa.s:141    .text:00000060 defineSongs
C:\DOCUME~1\Uyen\LOCALS~1\Temp/ccOGbaaa.s:292    .text:00000176 drive
C:\DOCUME~1\Uyen\LOCALS~1\Temp/ccOGbaaa.s:336    .text:000001b6 delayAndUpdateSensors
                            *COM*:00000034 sensors_in
                            *COM*:00000034 sensors
C:\DOCUME~1\Uyen\LOCALS~1\Temp/ccOGbaaa.s:422    .text:00000254 __vector_18
C:\DOCUME~1\Uyen\LOCALS~1\Temp/ccOGbaaa.s:478    .text:000002a6 __vector_11
C:\DOCUME~1\Uyen\LOCALS~1\Temp/ccOGbaaa.s:524    .text:000002e8 delayMs
C:\DOCUME~1\Uyen\LOCALS~1\Temp/ccOGbaaa.s:549    .text:00000302 baud
C:\DOCUME~1\Uyen\LOCALS~1\Temp/ccOGbaaa.s:695    .text:000003b8 powerOnRobot
C:\DOCUME~1\Uyen\LOCALS~1\Temp/ccOGbaaa.s:744    .text:000003e4 main
C:\DOCUME~1\Uyen\LOCALS~1\Temp/ccOGbaaa.s:1858   .text:00000b12 randomAngle

UNDEFINED SYMBOLS
__do_copy_data
__do_clear_bss
__stack
init_aux_UART
aux_rcv_disable
sprintf
aux_send_line
random
